
ProjectMain.elf:     file format elf32-avr

Sections:
Idx Name          Size      VMA       LMA       File off  Algn
  0 .data         0000015a  00800100  00002150  000021e4  2**0
                  CONTENTS, ALLOC, LOAD, DATA
  1 .text         00002150  00000000  00000000  00000094  2**1
                  CONTENTS, ALLOC, LOAD, READONLY, CODE
  2 .bss          00000033  0080025a  0080025a  0000233e  2**0
                  ALLOC
  3 .comment      0000005c  00000000  00000000  0000233e  2**0
                  CONTENTS, READONLY
  4 .debug_aranges 00000330  00000000  00000000  0000239a  2**0
                  CONTENTS, READONLY, DEBUGGING
  5 .debug_info   0000430a  00000000  00000000  000026ca  2**0
                  CONTENTS, READONLY, DEBUGGING
  6 .debug_abbrev 00001280  00000000  00000000  000069d4  2**0
                  CONTENTS, READONLY, DEBUGGING
  7 .debug_line   000018d4  00000000  00000000  00007c54  2**0
                  CONTENTS, READONLY, DEBUGGING
  8 .debug_frame  00000830  00000000  00000000  00009528  2**2
                  CONTENTS, READONLY, DEBUGGING
  9 .debug_str    00000f45  00000000  00000000  00009d58  2**0
                  CONTENTS, READONLY, DEBUGGING
 10 .debug_loc    00002298  00000000  00000000  0000ac9d  2**0
                  CONTENTS, READONLY, DEBUGGING
 11 .debug_ranges 00000478  00000000  00000000  0000cf35  2**0
                  CONTENTS, READONLY, DEBUGGING

Disassembly of section .text:

00000000 <__vectors>:
       0:	b3 c1       	rjmp	.+870    	; 0x368 <__ctors_end>
       2:	00 00       	nop
       4:	e0 c1       	rjmp	.+960    	; 0x3c6 <__vector_1>
       6:	00 00       	nop
       8:	ed c1       	rjmp	.+986    	; 0x3e4 <__vector_2>
       a:	00 00       	nop
       c:	fa c1       	rjmp	.+1012   	; 0x402 <__vector_3>
       e:	00 00       	nop
      10:	c7 c1       	rjmp	.+910    	; 0x3a0 <__bad_interrupt>
      12:	00 00       	nop
      14:	c5 c1       	rjmp	.+906    	; 0x3a0 <__bad_interrupt>
      16:	00 00       	nop
      18:	c3 c1       	rjmp	.+902    	; 0x3a0 <__bad_interrupt>
      1a:	00 00       	nop
      1c:	c1 c1       	rjmp	.+898    	; 0x3a0 <__bad_interrupt>
      1e:	00 00       	nop
      20:	bf c1       	rjmp	.+894    	; 0x3a0 <__bad_interrupt>
      22:	00 00       	nop
      24:	bd c1       	rjmp	.+890    	; 0x3a0 <__bad_interrupt>
      26:	00 00       	nop
      28:	bb c1       	rjmp	.+886    	; 0x3a0 <__bad_interrupt>
      2a:	00 00       	nop
      2c:	b9 c1       	rjmp	.+882    	; 0x3a0 <__bad_interrupt>
      2e:	00 00       	nop
      30:	b7 c1       	rjmp	.+878    	; 0x3a0 <__bad_interrupt>
      32:	00 00       	nop
      34:	b5 c1       	rjmp	.+874    	; 0x3a0 <__bad_interrupt>
      36:	00 00       	nop
      38:	b3 c1       	rjmp	.+870    	; 0x3a0 <__bad_interrupt>
      3a:	00 00       	nop
      3c:	b1 c1       	rjmp	.+866    	; 0x3a0 <__bad_interrupt>
      3e:	00 00       	nop
      40:	ef c1       	rjmp	.+990    	; 0x420 <__vector_16>
      42:	00 00       	nop
      44:	ad c1       	rjmp	.+858    	; 0x3a0 <__bad_interrupt>
      46:	00 00       	nop
      48:	ab c1       	rjmp	.+854    	; 0x3a0 <__bad_interrupt>
      4a:	00 00       	nop
      4c:	aa c1       	rjmp	.+852    	; 0x3a2 <__vector_19>
      4e:	00 00       	nop
      50:	a7 c1       	rjmp	.+846    	; 0x3a0 <__bad_interrupt>
      52:	00 00       	nop
      54:	a5 c1       	rjmp	.+842    	; 0x3a0 <__bad_interrupt>
      56:	00 00       	nop
      58:	a3 c1       	rjmp	.+838    	; 0x3a0 <__bad_interrupt>
      5a:	00 00       	nop
      5c:	a1 c1       	rjmp	.+834    	; 0x3a0 <__bad_interrupt>
      5e:	00 00       	nop
      60:	9f c1       	rjmp	.+830    	; 0x3a0 <__bad_interrupt>
      62:	00 00       	nop
      64:	9d c1       	rjmp	.+826    	; 0x3a0 <__bad_interrupt>
      66:	00 00       	nop
      68:	9b c1       	rjmp	.+822    	; 0x3a0 <__bad_interrupt>
      6a:	00 00       	nop
      6c:	99 c1       	rjmp	.+818    	; 0x3a0 <__bad_interrupt>
	...

00000070 <__trampolines_end>:
	...
      78:	00 06       	cpc	r0, r16
      7a:	5f 5f       	subi	r21, 0xFF	; 255
      7c:	06 00       	.word	0x0006	; ????
      7e:	00 00       	nop
      80:	00 07       	cpc	r16, r16
      82:	07 00       	.word	0x0007	; ????
      84:	07 07       	cpc	r16, r23
      86:	00 00       	nop
      88:	14 7f       	andi	r17, 0xF4	; 244
      8a:	7f 14       	cp	r7, r15
      8c:	7f 7f       	andi	r23, 0xFF	; 255
      8e:	14 00       	.word	0x0014	; ????
      90:	24 2e       	mov	r2, r20
      92:	6b 6b       	ori	r22, 0xBB	; 187
      94:	3a 12       	cpse	r3, r26
      96:	00 00       	nop
      98:	46 66       	ori	r20, 0x66	; 102
      9a:	30 18       	sub	r3, r0
      9c:	0c 66       	ori	r16, 0x6C	; 108
      9e:	62 00       	.word	0x0062	; ????
      a0:	30 7a       	andi	r19, 0xA0	; 160
      a2:	4f 5d       	subi	r20, 0xDF	; 223
      a4:	37 7a       	andi	r19, 0xA7	; 167
      a6:	48 00       	.word	0x0048	; ????
      a8:	04 07       	cpc	r16, r20
      aa:	03 00       	.word	0x0003	; ????
      ac:	00 00       	nop
      ae:	00 00       	nop
      b0:	00 1c       	adc	r0, r0
      b2:	3e 63       	ori	r19, 0x3E	; 62
      b4:	41 00       	.word	0x0041	; ????
      b6:	00 00       	nop
      b8:	00 41       	sbci	r16, 0x10	; 16
      ba:	63 3e       	cpi	r22, 0xE3	; 227
      bc:	1c 00       	.word	0x001c	; ????
      be:	00 00       	nop
      c0:	08 2a       	or	r0, r24
      c2:	3e 1c       	adc	r3, r14
      c4:	1c 3e       	cpi	r17, 0xEC	; 236
      c6:	2a 08       	sbc	r2, r10
      c8:	08 08       	sbc	r0, r8
      ca:	3e 3e       	cpi	r19, 0xEE	; 238
      cc:	08 08       	sbc	r0, r8
      ce:	00 00       	nop
      d0:	00 a0       	ldd	r0, Z+32	; 0x20
      d2:	e0 60       	ori	r30, 0x00	; 0
      d4:	00 00       	nop
      d6:	00 00       	nop
      d8:	08 08       	sbc	r0, r8
      da:	08 08       	sbc	r0, r8
      dc:	08 08       	sbc	r0, r8
      de:	00 00       	nop
      e0:	00 00       	nop
      e2:	60 60       	ori	r22, 0x00	; 0
      e4:	00 00       	nop
      e6:	00 00       	nop
      e8:	60 30       	cpi	r22, 0x00	; 0
      ea:	18 0c       	add	r1, r8
      ec:	06 03       	mulsu	r16, r22
      ee:	01 00       	.word	0x0001	; ????
      f0:	3e 7f       	andi	r19, 0xFE	; 254
      f2:	59 4d       	sbci	r21, 0xD9	; 217
      f4:	7f 3e       	cpi	r23, 0xEF	; 239
      f6:	00 00       	nop
      f8:	42 42       	sbci	r20, 0x22	; 34
      fa:	7f 7f       	andi	r23, 0xFF	; 255
      fc:	40 40       	sbci	r20, 0x00	; 0
      fe:	00 00       	nop
     100:	62 73       	andi	r22, 0x32	; 50
     102:	59 49       	sbci	r21, 0x99	; 153
     104:	6f 66       	ori	r22, 0x6F	; 111
     106:	00 00       	nop
     108:	22 63       	ori	r18, 0x32	; 50
     10a:	49 49       	sbci	r20, 0x99	; 153
     10c:	7f 36       	cpi	r23, 0x6F	; 111
     10e:	00 00       	nop
     110:	18 1c       	adc	r1, r8
     112:	16 13       	cpse	r17, r22
     114:	7f 7f       	andi	r23, 0xFF	; 255
     116:	10 00       	.word	0x0010	; ????
     118:	27 67       	ori	r18, 0x77	; 119
     11a:	45 45       	sbci	r20, 0x55	; 85
     11c:	7d 39       	cpi	r23, 0x9D	; 157
     11e:	00 00       	nop
     120:	3c 7e       	andi	r19, 0xEC	; 236
     122:	4b 49       	sbci	r20, 0x9B	; 155
     124:	79 30       	cpi	r23, 0x09	; 9
     126:	00 00       	nop
     128:	03 63       	ori	r16, 0x33	; 51
     12a:	71 19       	sub	r23, r1
     12c:	0f 07       	cpc	r16, r31
     12e:	00 00       	nop
     130:	36 7f       	andi	r19, 0xF6	; 246
     132:	49 49       	sbci	r20, 0x99	; 153
     134:	7f 36       	cpi	r23, 0x6F	; 111
     136:	00 00       	nop
     138:	06 4f       	sbci	r16, 0xF6	; 246
     13a:	49 69       	ori	r20, 0x99	; 153
     13c:	3f 1e       	adc	r3, r31
     13e:	00 00       	nop
     140:	00 00       	nop
     142:	6c 6c       	ori	r22, 0xCC	; 204
     144:	00 00       	nop
     146:	00 00       	nop
     148:	00 a0       	ldd	r0, Z+32	; 0x20
     14a:	ec 6c       	ori	r30, 0xCC	; 204
     14c:	00 00       	nop
     14e:	00 00       	nop
     150:	08 1c       	adc	r0, r8
     152:	36 63       	ori	r19, 0x36	; 54
     154:	41 00       	.word	0x0041	; ????
     156:	00 00       	nop
     158:	14 14       	cp	r1, r4
     15a:	14 14       	cp	r1, r4
     15c:	14 14       	cp	r1, r4
     15e:	00 00       	nop
     160:	00 41       	sbci	r16, 0x10	; 16
     162:	63 36       	cpi	r22, 0x63	; 99
     164:	1c 08       	sbc	r1, r12
     166:	00 00       	nop
     168:	02 03       	mulsu	r16, r18
     16a:	51 59       	subi	r21, 0x91	; 145
     16c:	0f 06       	cpc	r0, r31
     16e:	00 00       	nop
     170:	3e 7f       	andi	r19, 0xFE	; 254
     172:	41 5d       	subi	r20, 0xD1	; 209
     174:	5d 1f       	adc	r21, r29
     176:	1e 00       	.word	0x001e	; ????
     178:	7c 7e       	andi	r23, 0xEC	; 236
     17a:	13 13       	cpse	r17, r19
     17c:	7e 7c       	andi	r23, 0xCE	; 206
     17e:	00 00       	nop
     180:	41 7f       	andi	r20, 0xF1	; 241
     182:	7f 49       	sbci	r23, 0x9F	; 159
     184:	49 7f       	andi	r20, 0xF9	; 249
     186:	36 00       	.word	0x0036	; ????
     188:	1c 3e       	cpi	r17, 0xEC	; 236
     18a:	63 41       	sbci	r22, 0x13	; 19
     18c:	41 63       	ori	r20, 0x31	; 49
     18e:	22 00       	.word	0x0022	; ????
     190:	41 7f       	andi	r20, 0xF1	; 241
     192:	7f 41       	sbci	r23, 0x1F	; 31
     194:	63 7f       	andi	r22, 0xF3	; 243
     196:	1c 00       	.word	0x001c	; ????
     198:	41 7f       	andi	r20, 0xF1	; 241
     19a:	7f 49       	sbci	r23, 0x9F	; 159
     19c:	5d 41       	sbci	r21, 0x1D	; 29
     19e:	63 00       	.word	0x0063	; ????
     1a0:	41 7f       	andi	r20, 0xF1	; 241
     1a2:	7f 49       	sbci	r23, 0x9F	; 159
     1a4:	1d 01       	movw	r2, r26
     1a6:	03 00       	.word	0x0003	; ????
     1a8:	1c 3e       	cpi	r17, 0xEC	; 236
     1aa:	63 41       	sbci	r22, 0x13	; 19
     1ac:	51 73       	andi	r21, 0x31	; 49
     1ae:	72 00       	.word	0x0072	; ????
     1b0:	7f 7f       	andi	r23, 0xFF	; 255
     1b2:	08 08       	sbc	r0, r8
     1b4:	7f 7f       	andi	r23, 0xFF	; 255
     1b6:	00 00       	nop
     1b8:	00 41       	sbci	r16, 0x10	; 16
     1ba:	7f 7f       	andi	r23, 0xFF	; 255
     1bc:	41 00       	.word	0x0041	; ????
     1be:	00 00       	nop
     1c0:	30 70       	andi	r19, 0x00	; 0
     1c2:	40 41       	sbci	r20, 0x10	; 16
     1c4:	7f 3f       	cpi	r23, 0xFF	; 255
     1c6:	01 00       	.word	0x0001	; ????
     1c8:	41 7f       	andi	r20, 0xF1	; 241
     1ca:	7f 08       	sbc	r7, r15
     1cc:	1c 77       	andi	r17, 0x7C	; 124
     1ce:	63 00       	.word	0x0063	; ????
     1d0:	41 7f       	andi	r20, 0xF1	; 241
     1d2:	7f 41       	sbci	r23, 0x1F	; 31
     1d4:	40 60       	ori	r20, 0x00	; 0
     1d6:	70 00       	.word	0x0070	; ????
     1d8:	7f 7f       	andi	r23, 0xFF	; 255
     1da:	06 0c       	add	r0, r6
     1dc:	06 7f       	andi	r16, 0xF6	; 246
     1de:	7f 00       	.word	0x007f	; ????
     1e0:	7f 7f       	andi	r23, 0xFF	; 255
     1e2:	06 0c       	add	r0, r6
     1e4:	18 7f       	andi	r17, 0xF8	; 248
     1e6:	7f 00       	.word	0x007f	; ????
     1e8:	1c 3e       	cpi	r17, 0xEC	; 236
     1ea:	63 41       	sbci	r22, 0x13	; 19
     1ec:	63 3e       	cpi	r22, 0xE3	; 227
     1ee:	1c 00       	.word	0x001c	; ????
     1f0:	41 7f       	andi	r20, 0xF1	; 241
     1f2:	7f 49       	sbci	r23, 0x9F	; 159
     1f4:	09 0f       	add	r16, r25
     1f6:	06 00       	.word	0x0006	; ????
     1f8:	1e 3f       	cpi	r17, 0xFE	; 254
     1fa:	21 71       	andi	r18, 0x11	; 17
     1fc:	7f 5e       	subi	r23, 0xEF	; 239
     1fe:	00 00       	nop
     200:	41 7f       	andi	r20, 0xF1	; 241
     202:	7f 19       	sub	r23, r15
     204:	39 6f       	ori	r19, 0xF9	; 249
     206:	46 00       	.word	0x0046	; ????
     208:	26 67       	ori	r18, 0x76	; 118
     20a:	4d 59       	subi	r20, 0x9D	; 157
     20c:	7b 32       	cpi	r23, 0x2B	; 43
     20e:	00 00       	nop
     210:	03 41       	sbci	r16, 0x13	; 19
     212:	7f 7f       	andi	r23, 0xFF	; 255
     214:	41 03       	mulsu	r20, r17
     216:	00 00       	nop
     218:	7f 7f       	andi	r23, 0xFF	; 255
     21a:	40 40       	sbci	r20, 0x00	; 0
     21c:	7f 7f       	andi	r23, 0xFF	; 255
     21e:	00 00       	nop
     220:	1f 3f       	cpi	r17, 0xFF	; 255
     222:	60 60       	ori	r22, 0x00	; 0
     224:	3f 1f       	adc	r19, r31
     226:	00 00       	nop
     228:	7f 7f       	andi	r23, 0xFF	; 255
     22a:	30 18       	sub	r3, r0
     22c:	30 7f       	andi	r19, 0xF0	; 240
     22e:	7f 00       	.word	0x007f	; ????
     230:	63 77       	andi	r22, 0x73	; 115
     232:	1c 08       	sbc	r1, r12
     234:	1c 77       	andi	r17, 0x7C	; 124
     236:	63 00       	.word	0x0063	; ????
     238:	07 4f       	sbci	r16, 0xF7	; 247
     23a:	78 78       	andi	r23, 0x88	; 136
     23c:	4f 07       	cpc	r20, r31
     23e:	00 00       	nop
     240:	67 73       	andi	r22, 0x37	; 55
     242:	59 4d       	sbci	r21, 0xD9	; 217
     244:	47 63       	ori	r20, 0x37	; 55
     246:	71 00       	.word	0x0071	; ????
     248:	00 7f       	andi	r16, 0xF0	; 240
     24a:	7f 41       	sbci	r23, 0x1F	; 31
     24c:	41 00       	.word	0x0041	; ????
     24e:	00 00       	nop
     250:	01 03       	mulsu	r16, r17
     252:	06 0c       	add	r0, r6
     254:	18 30       	cpi	r17, 0x08	; 8
     256:	60 00       	.word	0x0060	; ????
     258:	00 41       	sbci	r16, 0x10	; 16
     25a:	41 7f       	andi	r20, 0xF1	; 241
     25c:	7f 00       	.word	0x007f	; ????
     25e:	00 00       	nop
     260:	08 0c       	add	r0, r8
     262:	06 03       	mulsu	r16, r22
     264:	06 0c       	add	r0, r6
     266:	08 00       	.word	0x0008	; ????
     268:	80 80       	ld	r8, Z
     26a:	80 80       	ld	r8, Z
     26c:	80 80       	ld	r8, Z
     26e:	80 80       	ld	r8, Z
     270:	00 00       	nop
     272:	03 07       	cpc	r16, r19
     274:	04 00       	.word	0x0004	; ????
     276:	00 00       	nop
     278:	20 74       	andi	r18, 0x40	; 64
     27a:	54 54       	subi	r21, 0x44	; 68
     27c:	3c 78       	andi	r19, 0x8C	; 140
     27e:	40 00       	.word	0x0040	; ????
     280:	41 3f       	cpi	r20, 0xF1	; 241
     282:	7f 44       	sbci	r23, 0x4F	; 79
     284:	44 7c       	andi	r20, 0xC4	; 196
     286:	38 00       	.word	0x0038	; ????
     288:	38 7c       	andi	r19, 0xC8	; 200
     28a:	44 44       	sbci	r20, 0x44	; 68
     28c:	6c 28       	or	r6, r12
     28e:	00 00       	nop
     290:	30 78       	andi	r19, 0x80	; 128
     292:	48 49       	sbci	r20, 0x98	; 152
     294:	3f 7f       	andi	r19, 0xFF	; 255
     296:	40 00       	.word	0x0040	; ????
     298:	38 7c       	andi	r19, 0xC8	; 200
     29a:	54 54       	subi	r21, 0x44	; 68
     29c:	5c 18       	sub	r5, r12
     29e:	00 00       	nop
     2a0:	48 7e       	andi	r20, 0xE8	; 232
     2a2:	7f 49       	sbci	r23, 0x9F	; 159
     2a4:	03 02       	muls	r16, r19
     2a6:	00 00       	nop
     2a8:	98 bc       	out	0x28, r9	; 40
     2aa:	a4 a4       	ldd	r10, Z+44	; 0x2c
     2ac:	f8 7c       	andi	r31, 0xC8	; 200
     2ae:	04 00       	.word	0x0004	; ????
     2b0:	41 7f       	andi	r20, 0xF1	; 241
     2b2:	7f 08       	sbc	r7, r15
     2b4:	04 7c       	andi	r16, 0xC4	; 196
     2b6:	78 00       	.word	0x0078	; ????
     2b8:	00 44       	sbci	r16, 0x40	; 64
     2ba:	7d 7d       	andi	r23, 0xDD	; 221
     2bc:	40 00       	.word	0x0040	; ????
     2be:	00 00       	nop
     2c0:	40 c4       	rjmp	.+2176   	; 0xb42 <JOY_calibrate+0x188>
     2c2:	84 fd       	sbrc	r24, 4
     2c4:	7d 00       	.word	0x007d	; ????
     2c6:	00 00       	nop
     2c8:	41 7f       	andi	r20, 0xF1	; 241
     2ca:	7f 10       	cpse	r7, r15
     2cc:	38 6c       	ori	r19, 0xC8	; 200
     2ce:	44 00       	.word	0x0044	; ????
     2d0:	00 41       	sbci	r16, 0x10	; 16
     2d2:	7f 7f       	andi	r23, 0xFF	; 255
     2d4:	40 00       	.word	0x0040	; ????
     2d6:	00 00       	nop
     2d8:	7c 7c       	andi	r23, 0xCC	; 204
     2da:	0c 18       	sub	r0, r12
     2dc:	0c 7c       	andi	r16, 0xCC	; 204
     2de:	78 00       	.word	0x0078	; ????
     2e0:	7c 7c       	andi	r23, 0xCC	; 204
     2e2:	04 04       	cpc	r0, r4
     2e4:	7c 78       	andi	r23, 0x8C	; 140
     2e6:	00 00       	nop
     2e8:	38 7c       	andi	r19, 0xC8	; 200
     2ea:	44 44       	sbci	r20, 0x44	; 68
     2ec:	7c 38       	cpi	r23, 0x8C	; 140
     2ee:	00 00       	nop
     2f0:	84 fc       	sbrc	r8, 4
     2f2:	f8 a4       	ldd	r15, Y+40	; 0x28
     2f4:	24 3c       	cpi	r18, 0xC4	; 196
     2f6:	18 00       	.word	0x0018	; ????
     2f8:	18 3c       	cpi	r17, 0xC8	; 200
     2fa:	24 a4       	ldd	r2, Z+44	; 0x2c
     2fc:	f8 fc       	.word	0xfcf8	; ????
     2fe:	84 00       	.word	0x0084	; ????
     300:	44 7c       	andi	r20, 0xC4	; 196
     302:	78 44       	sbci	r23, 0x48	; 72
     304:	1c 18       	sub	r1, r12
     306:	00 00       	nop
     308:	48 5c       	subi	r20, 0xC8	; 200
     30a:	54 54       	subi	r21, 0x44	; 68
     30c:	74 24       	eor	r7, r4
     30e:	00 00       	nop
     310:	00 04       	cpc	r0, r0
     312:	3e 7f       	andi	r19, 0xFE	; 254
     314:	44 24       	eor	r4, r4
     316:	00 00       	nop
     318:	3c 7c       	andi	r19, 0xCC	; 204
     31a:	40 40       	sbci	r20, 0x00	; 0
     31c:	3c 7c       	andi	r19, 0xCC	; 204
     31e:	40 00       	.word	0x0040	; ????
     320:	1c 3c       	cpi	r17, 0xCC	; 204
     322:	60 60       	ori	r22, 0x00	; 0
     324:	3c 1c       	adc	r3, r12
     326:	00 00       	nop
     328:	3c 7c       	andi	r19, 0xCC	; 204
     32a:	60 30       	cpi	r22, 0x00	; 0
     32c:	60 7c       	andi	r22, 0xC0	; 192
     32e:	3c 00       	.word	0x003c	; ????
     330:	44 6c       	ori	r20, 0xC4	; 196
     332:	38 10       	cpse	r3, r8
     334:	38 6c       	ori	r19, 0xC8	; 200
     336:	44 00       	.word	0x0044	; ????
     338:	9c bc       	out	0x2c, r9	; 44
     33a:	a0 a0       	ldd	r10, Z+32	; 0x20
     33c:	fc 7c       	andi	r31, 0xCC	; 204
     33e:	00 00       	nop
     340:	4c 64       	ori	r20, 0x4C	; 76
     342:	74 5c       	subi	r23, 0xC4	; 196
     344:	4c 64       	ori	r20, 0x4C	; 76
     346:	00 00       	nop
     348:	08 08       	sbc	r0, r8
     34a:	3e 77       	andi	r19, 0x7E	; 126
     34c:	41 41       	sbci	r20, 0x11	; 17
     34e:	00 00       	nop
     350:	00 00       	nop
     352:	00 77       	andi	r16, 0x70	; 112
     354:	77 00       	.word	0x0077	; ????
     356:	00 00       	nop
     358:	41 41       	sbci	r20, 0x11	; 17
     35a:	77 3e       	cpi	r23, 0xE7	; 231
     35c:	08 08       	sbc	r0, r8
     35e:	00 00       	nop
     360:	02 03       	mulsu	r16, r18
     362:	01 03       	mulsu	r16, r17
     364:	02 03       	mulsu	r16, r18
     366:	01 00       	.word	0x0001	; ????

00000368 <__ctors_end>:
     368:	11 24       	eor	r1, r1
     36a:	1f be       	out	0x3f, r1	; 63
     36c:	cf ef       	ldi	r28, 0xFF	; 255
     36e:	d4 e0       	ldi	r29, 0x04	; 4
     370:	de bf       	out	0x3e, r29	; 62
     372:	cd bf       	out	0x3d, r28	; 61

00000374 <__do_copy_data>:
     374:	12 e0       	ldi	r17, 0x02	; 2
     376:	a0 e0       	ldi	r26, 0x00	; 0
     378:	b1 e0       	ldi	r27, 0x01	; 1
     37a:	e0 e5       	ldi	r30, 0x50	; 80
     37c:	f1 e2       	ldi	r31, 0x21	; 33
     37e:	02 c0       	rjmp	.+4      	; 0x384 <__do_copy_data+0x10>
     380:	05 90       	lpm	r0, Z+
     382:	0d 92       	st	X+, r0
     384:	aa 35       	cpi	r26, 0x5A	; 90
     386:	b1 07       	cpc	r27, r17
     388:	d9 f7       	brne	.-10     	; 0x380 <__do_copy_data+0xc>

0000038a <__do_clear_bss>:
     38a:	22 e0       	ldi	r18, 0x02	; 2
     38c:	aa e5       	ldi	r26, 0x5A	; 90
     38e:	b2 e0       	ldi	r27, 0x02	; 2
     390:	01 c0       	rjmp	.+2      	; 0x394 <.do_clear_bss_start>

00000392 <.do_clear_bss_loop>:
     392:	1d 92       	st	X+, r1

00000394 <.do_clear_bss_start>:
     394:	ad 38       	cpi	r26, 0x8D	; 141
     396:	b2 07       	cpc	r27, r18
     398:	e1 f7       	brne	.-8      	; 0x392 <.do_clear_bss_loop>
     39a:	b1 d0       	rcall	.+354    	; 0x4fe <main>
     39c:	0c 94 a6 10 	jmp	0x214c	; 0x214c <_exit>

000003a0 <__bad_interrupt>:
     3a0:	2f ce       	rjmp	.-930    	; 0x0 <__vectors>

000003a2 <__vector_19>:
		break;
	}

	//printf("JOY: %s, X:%d, Y: %d \t\t SLI_l:%d, SLI_r:%d \t l_Btn: %d, r_Btn: %d\n", dir, currentJoyPosition.X_per, currentJoyPosition.Y_per, currentSliPosition.L_per, currentSliPosition.R_per, leftButton, rightButton);
	//printf("JOY: %s, X:%d, Y: %d\n", dir, currentJoyPosition.X_per, currentJoyPosition.Y_per);
}
     3a2:	1f 92       	push	r1
     3a4:	0f 92       	push	r0
     3a6:	0f b6       	in	r0, 0x3f	; 63
     3a8:	0f 92       	push	r0
     3aa:	11 24       	eor	r1, r1
     3ac:	8f 93       	push	r24
     3ae:	8c b1       	in	r24, 0x0c	; 12
     3b0:	80 93 7d 02 	sts	0x027D, r24
     3b4:	81 e0       	ldi	r24, 0x01	; 1
     3b6:	80 93 66 02 	sts	0x0266, r24
     3ba:	8f 91       	pop	r24
     3bc:	0f 90       	pop	r0
     3be:	0f be       	out	0x3f, r0	; 63
     3c0:	0f 90       	pop	r0
     3c2:	1f 90       	pop	r1
     3c4:	18 95       	reti

000003c6 <__vector_1>:
     3c6:	1f 92       	push	r1
     3c8:	0f 92       	push	r0
     3ca:	0f b6       	in	r0, 0x3f	; 63
     3cc:	0f 92       	push	r0
     3ce:	11 24       	eor	r1, r1
     3d0:	8f 93       	push	r24
     3d2:	81 e0       	ldi	r24, 0x01	; 1
     3d4:	80 93 65 02 	sts	0x0265, r24
     3d8:	8f 91       	pop	r24
     3da:	0f 90       	pop	r0
     3dc:	0f be       	out	0x3f, r0	; 63
     3de:	0f 90       	pop	r0
     3e0:	1f 90       	pop	r1
     3e2:	18 95       	reti

000003e4 <__vector_2>:
     3e4:	1f 92       	push	r1
     3e6:	0f 92       	push	r0
     3e8:	0f b6       	in	r0, 0x3f	; 63
     3ea:	0f 92       	push	r0
     3ec:	11 24       	eor	r1, r1
     3ee:	8f 93       	push	r24
     3f0:	81 e0       	ldi	r24, 0x01	; 1
     3f2:	80 93 64 02 	sts	0x0264, r24
     3f6:	8f 91       	pop	r24
     3f8:	0f 90       	pop	r0
     3fa:	0f be       	out	0x3f, r0	; 63
     3fc:	0f 90       	pop	r0
     3fe:	1f 90       	pop	r1
     400:	18 95       	reti

00000402 <__vector_3>:
     402:	1f 92       	push	r1
     404:	0f 92       	push	r0
     406:	0f b6       	in	r0, 0x3f	; 63
     408:	0f 92       	push	r0
     40a:	11 24       	eor	r1, r1
     40c:	8f 93       	push	r24
     40e:	81 e0       	ldi	r24, 0x01	; 1
     410:	80 93 62 02 	sts	0x0262, r24
     414:	8f 91       	pop	r24
     416:	0f 90       	pop	r0
     418:	0f be       	out	0x3f, r0	; 63
     41a:	0f 90       	pop	r0
     41c:	1f 90       	pop	r1
     41e:	18 95       	reti

00000420 <__vector_16>:
     420:	1f 92       	push	r1
     422:	0f 92       	push	r0
     424:	0f b6       	in	r0, 0x3f	; 63
     426:	0f 92       	push	r0
     428:	11 24       	eor	r1, r1
     42a:	2f 93       	push	r18
     42c:	3f 93       	push	r19
     42e:	4f 93       	push	r20
     430:	5f 93       	push	r21
     432:	6f 93       	push	r22
     434:	7f 93       	push	r23
     436:	8f 93       	push	r24
     438:	9f 93       	push	r25
     43a:	af 93       	push	r26
     43c:	bf 93       	push	r27
     43e:	ef 93       	push	r30
     440:	ff 93       	push	r31
     442:	d9 d7       	rcall	.+4018   	; 0x13f6 <OLED_updateScreen>
     444:	80 91 63 02 	lds	r24, 0x0263
     448:	8f 5f       	subi	r24, 0xFF	; 255
     44a:	80 93 63 02 	sts	0x0263, r24
     44e:	80 91 63 02 	lds	r24, 0x0263
     452:	82 30       	cpi	r24, 0x02	; 2
     454:	21 f4       	brne	.+8      	; 0x45e <__vector_16+0x3e>
     456:	0e 94 92 0b 	call	0x1724	; 0x1724 <OLED_setAnimationTick>
     45a:	10 92 63 02 	sts	0x0263, r1
     45e:	ff 91       	pop	r31
     460:	ef 91       	pop	r30
     462:	bf 91       	pop	r27
     464:	af 91       	pop	r26
     466:	9f 91       	pop	r25
     468:	8f 91       	pop	r24
     46a:	7f 91       	pop	r23
     46c:	6f 91       	pop	r22
     46e:	5f 91       	pop	r21
     470:	4f 91       	pop	r20
     472:	3f 91       	pop	r19
     474:	2f 91       	pop	r18
     476:	0f 90       	pop	r0
     478:	0f be       	out	0x3f, r0	; 63
     47a:	0f 90       	pop	r0
     47c:	1f 90       	pop	r1
     47e:	18 95       	reti

00000480 <init>:
     480:	ef 92       	push	r14
     482:	ff 92       	push	r15
     484:	0f 93       	push	r16
     486:	1f 93       	push	r17
     488:	1f e1       	ldi	r17, 0x1F	; 31
     48a:	e1 2e       	mov	r14, r17
     48c:	f1 2c       	mov	r15, r1
     48e:	00 e0       	ldi	r16, 0x00	; 0
     490:	10 e0       	ldi	r17, 0x00	; 0
     492:	20 e0       	ldi	r18, 0x00	; 0
     494:	30 e0       	ldi	r19, 0x00	; 0
     496:	4b e4       	ldi	r20, 0x4B	; 75
     498:	50 e0       	ldi	r21, 0x00	; 0
     49a:	60 e8       	ldi	r22, 0x80	; 128
     49c:	75 e2       	ldi	r23, 0x25	; 37
     49e:	80 e0       	ldi	r24, 0x00	; 0
     4a0:	90 e0       	ldi	r25, 0x00	; 0
     4a2:	0e 94 cb 0b 	call	0x1796	; 0x1796 <uartInit>
     4a6:	88 e4       	ldi	r24, 0x48	; 72
     4a8:	91 e0       	ldi	r25, 0x01	; 1
     4aa:	0e 94 b8 0d 	call	0x1b70	; 0x1b70 <puts>
     4ae:	81 e0       	ldi	r24, 0x01	; 1
     4b0:	5f d2       	rcall	.+1214   	; 0x970 <enableXMEM>
     4b2:	0e 94 99 0b 	call	0x1732	; 0x1732 <SLI_init>
     4b6:	6e d2       	rcall	.+1244   	; 0x994 <JOY_init>
     4b8:	f4 d6       	rcall	.+3560   	; 0x12a2 <OLED_init>
     4ba:	0e 94 a2 0b 	call	0x1744	; 0x1744 <SPI_init>
     4be:	61 d4       	rcall	.+2242   	; 0xd82 <MCP2515_init>
     4c0:	b4 d0       	rcall	.+360    	; 0x62a <CAN_init>
     4c2:	8b b7       	in	r24, 0x3b	; 59
     4c4:	80 64       	ori	r24, 0x40	; 64
     4c6:	8b bf       	out	0x3b, r24	; 59
     4c8:	85 b7       	in	r24, 0x35	; 53
     4ca:	82 60       	ori	r24, 0x02	; 2
     4cc:	85 bf       	out	0x35, r24	; 53
     4ce:	85 b7       	in	r24, 0x35	; 53
     4d0:	8e 7f       	andi	r24, 0xFE	; 254
     4d2:	85 bf       	out	0x35, r24	; 53
     4d4:	8b 98       	cbi	0x11, 3	; 17
     4d6:	93 9a       	sbi	0x12, 3	; 18
     4d8:	8b b7       	in	r24, 0x3b	; 59
     4da:	80 68       	ori	r24, 0x80	; 128
     4dc:	8b bf       	out	0x3b, r24	; 59
     4de:	85 b7       	in	r24, 0x35	; 53
     4e0:	88 60       	ori	r24, 0x08	; 8
     4e2:	85 bf       	out	0x35, r24	; 53
     4e4:	85 b7       	in	r24, 0x35	; 53
     4e6:	8b 7f       	andi	r24, 0xFB	; 251
     4e8:	85 bf       	out	0x35, r24	; 53
     4ea:	32 98       	cbi	0x06, 2	; 6
     4ec:	3a 98       	cbi	0x07, 2	; 7
     4ee:	b8 98       	cbi	0x17, 0	; 23
     4f0:	c0 98       	cbi	0x18, 0	; 24
     4f2:	78 94       	sei
     4f4:	1f 91       	pop	r17
     4f6:	0f 91       	pop	r16
     4f8:	ff 90       	pop	r15
     4fa:	ef 90       	pop	r14
     4fc:	08 95       	ret

000004fe <main>:
/*
=======================MAIN FUNCTION=========================
*/

int main(void)
{
     4fe:	cf 93       	push	r28
     500:	df 93       	push	r29
     502:	cd b7       	in	r28, 0x3d	; 61
     504:	de b7       	in	r29, 0x3e	; 62
     506:	a1 97       	sbiw	r28, 0x21	; 33
     508:	0f b6       	in	r0, 0x3f	; 63
     50a:	f8 94       	cli
     50c:	de bf       	out	0x3e, r29	; 62
     50e:	0f be       	out	0x3f, r0	; 63
     510:	cd bf       	out	0x3d, r28	; 61
	
	init();
     512:	b6 df       	rcall	.-148    	; 0x480 <init>
	
	OLED_bufferGoto(0,0);
     514:	60 e0       	ldi	r22, 0x00	; 0
     516:	70 e0       	ldi	r23, 0x00	; 0
     518:	80 e0       	ldi	r24, 0x00	; 0
     51a:	90 e0       	ldi	r25, 0x00	; 0
     51c:	8e d7       	rcall	.+3868   	; 0x143a <OLED_bufferGoto>
	OLED_printString("I'm alive");
     51e:	8e e7       	ldi	r24, 0x7E	; 126
     520:	91 e0       	ldi	r25, 0x01	; 1
     522:	ca d7       	rcall	.+3988   	; 0x14b8 <OLED_printString>
	OLED_bufferGoto(1,0);
     524:	60 e0       	ldi	r22, 0x00	; 0
     526:	70 e0       	ldi	r23, 0x00	; 0
     528:	81 e0       	ldi	r24, 0x01	; 1
     52a:	90 e0       	ldi	r25, 0x00	; 0
     52c:	86 d7       	rcall	.+3852   	; 0x143a <OLED_bufferGoto>
	OLED_printString("I'm alive");
     52e:	8e e7       	ldi	r24, 0x7E	; 126
     530:	91 e0       	ldi	r25, 0x01	; 1
     532:	c2 d7       	rcall	.+3972   	; 0x14b8 <OLED_printString>
	OLED_bufferGoto(2,0);
     534:	60 e0       	ldi	r22, 0x00	; 0
     536:	70 e0       	ldi	r23, 0x00	; 0
     538:	82 e0       	ldi	r24, 0x02	; 2
     53a:	90 e0       	ldi	r25, 0x00	; 0
     53c:	7e d7       	rcall	.+3836   	; 0x143a <OLED_bufferGoto>
	OLED_printString("I'm alive");
     53e:	8e e7       	ldi	r24, 0x7E	; 126
     540:	91 e0       	ldi	r25, 0x01	; 1
     542:	ba d7       	rcall	.+3956   	; 0x14b8 <OLED_printString>
	OLED_bufferGoto(3,0);
     544:	60 e0       	ldi	r22, 0x00	; 0
     546:	70 e0       	ldi	r23, 0x00	; 0
     548:	83 e0       	ldi	r24, 0x03	; 3
     54a:	90 e0       	ldi	r25, 0x00	; 0
     54c:	76 d7       	rcall	.+3820   	; 0x143a <OLED_bufferGoto>
	OLED_printString("I'm alive");
     54e:	8e e7       	ldi	r24, 0x7E	; 126
     550:	91 e0       	ldi	r25, 0x01	; 1
     552:	b2 d7       	rcall	.+3940   	; 0x14b8 <OLED_printString>
	OLED_bufferGoto(4,0);
     554:	60 e0       	ldi	r22, 0x00	; 0
     556:	70 e0       	ldi	r23, 0x00	; 0
     558:	84 e0       	ldi	r24, 0x04	; 4
     55a:	90 e0       	ldi	r25, 0x00	; 0
     55c:	6e d7       	rcall	.+3804   	; 0x143a <OLED_bufferGoto>
	OLED_printString("I'm alive");
     55e:	8e e7       	ldi	r24, 0x7E	; 126
     560:	91 e0       	ldi	r25, 0x01	; 1
     562:	aa d7       	rcall	.+3924   	; 0x14b8 <OLED_printString>
	OLED_bufferGoto(5,0);
     564:	60 e0       	ldi	r22, 0x00	; 0
     566:	70 e0       	ldi	r23, 0x00	; 0
     568:	85 e0       	ldi	r24, 0x05	; 5
     56a:	90 e0       	ldi	r25, 0x00	; 0
     56c:	66 d7       	rcall	.+3788   	; 0x143a <OLED_bufferGoto>
	OLED_printString("I'm alive");
     56e:	8e e7       	ldi	r24, 0x7E	; 126
     570:	91 e0       	ldi	r25, 0x01	; 1
     572:	a2 d7       	rcall	.+3908   	; 0x14b8 <OLED_printString>
	OLED_bufferGoto(6,0);
     574:	60 e0       	ldi	r22, 0x00	; 0
     576:	70 e0       	ldi	r23, 0x00	; 0
     578:	86 e0       	ldi	r24, 0x06	; 6
     57a:	90 e0       	ldi	r25, 0x00	; 0
     57c:	5e d7       	rcall	.+3772   	; 0x143a <OLED_bufferGoto>
	OLED_printString("I'm alive");
     57e:	8e e7       	ldi	r24, 0x7E	; 126
     580:	91 e0       	ldi	r25, 0x01	; 1
     582:	9a d7       	rcall	.+3892   	; 0x14b8 <OLED_printString>
	OLED_bufferGoto(7,0);
     584:	60 e0       	ldi	r22, 0x00	; 0
     586:	70 e0       	ldi	r23, 0x00	; 0
     588:	87 e0       	ldi	r24, 0x07	; 7
     58a:	90 e0       	ldi	r25, 0x00	; 0
     58c:	56 d7       	rcall	.+3756   	; 0x143a <OLED_bufferGoto>
	OLED_printString("I'm alive");
     58e:	8e e7       	ldi	r24, 0x7E	; 126
     590:	91 e0       	ldi	r25, 0x01	; 1
     592:	92 d7       	rcall	.+3876   	; 0x14b8 <OLED_printString>
	
	saveToAddress(0x1fc0, 0x99);
     594:	69 e9       	ldi	r22, 0x99	; 153
     596:	80 ec       	ldi	r24, 0xC0	; 192
     598:	9f e1       	ldi	r25, 0x1F	; 31
     59a:	f9 d1       	rcall	.+1010   	; 0x98e <saveToAddress>
	saveToAddress(0x1fff, 0x80);
     59c:	60 e8       	ldi	r22, 0x80	; 128
     59e:	8f ef       	ldi	r24, 0xFF	; 255
     5a0:	9f e1       	ldi	r25, 0x1F	; 31
     5a2:	f5 d1       	rcall	.+1002   	; 0x98e <saveToAddress>
	
	
	
    while(1)
    {
		currPos = JOY_getPosition();
     5a4:	0a e5       	ldi	r16, 0x5A	; 90
     5a6:	12 e0       	ldi	r17, 0x02	; 2
		
		message2send.id = 23;
     5a8:	0f 2e       	mov	r0, r31
     5aa:	f7 e1       	ldi	r31, 0x17	; 23
     5ac:	ef 2e       	mov	r14, r31
     5ae:	f1 2c       	mov	r15, r1
     5b0:	f0 2d       	mov	r31, r0
		message2send.length = 1;
     5b2:	dd 24       	eor	r13, r13
     5b4:	d3 94       	inc	r13
			uint8_t receiveBufferStatus;
			// check for message reception
			if(receiveBufferStatus = 0x03 & MCP2515_read(SS_CAN_CONTROLLER, MCP_CANINTF))
			{
				struct can_message receivedMessage;
				receivedMessage = CAN_receiveMessage(receiveBufferStatus);
     5b6:	0f 2e       	mov	r0, r31
     5b8:	fb e0       	ldi	r31, 0x0B	; 11
     5ba:	cf 2e       	mov	r12, r31
     5bc:	f0 2d       	mov	r31, r0
	
	
	
    while(1)
    {
		currPos = JOY_getPosition();
     5be:	6d d3       	rcall	.+1754   	; 0xc9a <JOY_getPosition>
     5c0:	f8 01       	movw	r30, r16
     5c2:	20 83       	st	Z, r18
     5c4:	31 83       	std	Z+1, r19	; 0x01
     5c6:	42 83       	std	Z+2, r20	; 0x02
     5c8:	53 83       	std	Z+3, r21	; 0x03
     5ca:	64 83       	std	Z+4, r22	; 0x04
     5cc:	75 83       	std	Z+5, r23	; 0x05
     5ce:	86 83       	std	Z+6, r24	; 0x06
     5d0:	97 83       	std	Z+7, r25	; 0x07
		
		message2send.id = 23;
     5d2:	fa 82       	std	Y+2, r15	; 0x02
     5d4:	e9 82       	std	Y+1, r14	; 0x01
		message2send.length = 1;
     5d6:	db 82       	std	Y+3, r13	; 0x03
		message2send.data[0] = currPos.X_abs;
     5d8:	2c 83       	std	Y+4, r18	; 0x04
		
		CAN_sendMessage(&message2send, 0);
     5da:	60 e0       	ldi	r22, 0x00	; 0
     5dc:	ce 01       	movw	r24, r28
     5de:	01 96       	adiw	r24, 0x01	; 1
     5e0:	3b d0       	rcall	.+118    	; 0x658 <CAN_sendMessage>
	#else
		//round up by default
		__ticks_dc = (uint32_t)(ceil(fabs(__tmp)));
	#endif

	__builtin_avr_delay_cycles(__ticks_dc);
     5e2:	80 e0       	ldi	r24, 0x00	; 0
     5e4:	90 ef       	ldi	r25, 0xF0	; 240
     5e6:	01 97       	sbiw	r24, 0x01	; 1
     5e8:	f1 f7       	brne	.-4      	; 0x5e6 <__stack+0xe7>
		_delay_ms(50);

		if(activateMenuFlag)
     5ea:	80 91 64 02 	lds	r24, 0x0264
     5ee:	81 11       	cpse	r24, r1
		{
			MENU_activate();
     5f0:	32 d6       	rcall	.+3172   	; 0x1256 <MENU_activate>
		}

		if(SPIreceivedFlag)
     5f2:	80 91 62 02 	lds	r24, 0x0262
     5f6:	88 23       	and	r24, r24
     5f8:	11 f3       	breq	.-60     	; 0x5be <__stack+0xbf>
		{
			
			uint8_t receiveBufferStatus;
			// check for message reception
			if(receiveBufferStatus = 0x03 & MCP2515_read(SS_CAN_CONTROLLER, MCP_CANINTF))
     5fa:	6c e2       	ldi	r22, 0x2C	; 44
     5fc:	80 e0       	ldi	r24, 0x00	; 0
     5fe:	aa d3       	rcall	.+1876   	; 0xd54 <MCP2515_read>
     600:	83 70       	andi	r24, 0x03	; 3
     602:	e9 f2       	breq	.-70     	; 0x5be <__stack+0xbf>
			{
				struct can_message receivedMessage;
				receivedMessage = CAN_receiveMessage(receiveBufferStatus);
     604:	68 2f       	mov	r22, r24
     606:	ce 01       	movw	r24, r28
     608:	47 96       	adiw	r24, 0x17	; 23
     60a:	8f d0       	rcall	.+286    	; 0x72a <CAN_receiveMessage>
     60c:	fe 01       	movw	r30, r28
     60e:	77 96       	adiw	r30, 0x17	; 23
     610:	de 01       	movw	r26, r28
     612:	1c 96       	adiw	r26, 0x0c	; 12
     614:	8c 2d       	mov	r24, r12
     616:	01 90       	ld	r0, Z+
     618:	0d 92       	st	X+, r0
     61a:	8a 95       	dec	r24
     61c:	e1 f7       	brne	.-8      	; 0x616 <__stack+0x117>

				CAN_printMessage(&receivedMessage);
     61e:	ce 01       	movw	r24, r28
     620:	0c 96       	adiw	r24, 0x0c	; 12
     622:	4c d1       	rcall	.+664    	; 0x8bc <CAN_printMessage>
			
				SPIreceivedFlag = 0;
     624:	10 92 62 02 	sts	0x0262, r1
     628:	ca cf       	rjmp	.-108    	; 0x5be <__stack+0xbf>

0000062a <CAN_init>:
     62a:	cf 93       	push	r28
     62c:	df 93       	push	r29
     62e:	cd b7       	in	r28, 0x3d	; 61
     630:	de b7       	in	r29, 0x3e	; 62
     632:	43 e0       	ldi	r20, 0x03	; 3
     634:	6b e2       	ldi	r22, 0x2B	; 43
     636:	80 e0       	ldi	r24, 0x00	; 0
     638:	90 e0       	ldi	r25, 0x00	; 0
     63a:	af d3       	rcall	.+1886   	; 0xd9a <MCP2515_write>
     63c:	40 e6       	ldi	r20, 0x60	; 96
     63e:	60 e6       	ldi	r22, 0x60	; 96
     640:	80 e0       	ldi	r24, 0x00	; 0
     642:	90 e0       	ldi	r25, 0x00	; 0
     644:	aa d3       	rcall	.+1876   	; 0xd9a <MCP2515_write>
     646:	20 e0       	ldi	r18, 0x00	; 0
     648:	40 e8       	ldi	r20, 0x80	; 128
     64a:	6f e0       	ldi	r22, 0x0F	; 15
     64c:	80 e0       	ldi	r24, 0x00	; 0
     64e:	90 e0       	ldi	r25, 0x00	; 0
     650:	b7 d3       	rcall	.+1902   	; 0xdc0 <MCP2515_bitModify>
     652:	df 91       	pop	r29
     654:	cf 91       	pop	r28
     656:	08 95       	ret

00000658 <CAN_sendMessage>:
     658:	cf 93       	push	r28
     65a:	df 93       	push	r29
     65c:	cd b7       	in	r28, 0x3d	; 61
     65e:	de b7       	in	r29, 0x3e	; 62
     660:	27 97       	sbiw	r28, 0x07	; 7
     662:	0f b6       	in	r0, 0x3f	; 63
     664:	f8 94       	cli
     666:	de bf       	out	0x3e, r29	; 62
     668:	0f be       	out	0x3f, r0	; 63
     66a:	cd bf       	out	0x3d, r28	; 61
     66c:	9e 83       	std	Y+6, r25	; 0x06
     66e:	8d 83       	std	Y+5, r24	; 0x05
     670:	6f 83       	std	Y+7, r22	; 0x07
     672:	8f 81       	ldd	r24, Y+7	; 0x07
     674:	88 2f       	mov	r24, r24
     676:	90 e0       	ldi	r25, 0x00	; 0
     678:	00 97       	sbiw	r24, 0x00	; 0
     67a:	09 f0       	breq	.+2      	; 0x67e <CAN_sendMessage+0x26>
     67c:	4d c0       	rjmp	.+154    	; 0x718 <CAN_sendMessage+0xc0>
     67e:	8d 81       	ldd	r24, Y+5	; 0x05
     680:	9e 81       	ldd	r25, Y+6	; 0x06
     682:	fc 01       	movw	r30, r24
     684:	80 81       	ld	r24, Z
     686:	91 81       	ldd	r25, Z+1	; 0x01
     688:	9c 83       	std	Y+4, r25	; 0x04
     68a:	8b 83       	std	Y+3, r24	; 0x03
     68c:	8b 81       	ldd	r24, Y+3	; 0x03
     68e:	82 95       	swap	r24
     690:	88 0f       	add	r24, r24
     692:	80 7e       	andi	r24, 0xE0	; 224
     694:	48 2f       	mov	r20, r24
     696:	62 e3       	ldi	r22, 0x32	; 50
     698:	80 e0       	ldi	r24, 0x00	; 0
     69a:	90 e0       	ldi	r25, 0x00	; 0
     69c:	7e d3       	rcall	.+1788   	; 0xd9a <MCP2515_write>
     69e:	8b 81       	ldd	r24, Y+3	; 0x03
     6a0:	9c 81       	ldd	r25, Y+4	; 0x04
     6a2:	96 95       	lsr	r25
     6a4:	87 95       	ror	r24
     6a6:	96 95       	lsr	r25
     6a8:	87 95       	ror	r24
     6aa:	96 95       	lsr	r25
     6ac:	87 95       	ror	r24
     6ae:	48 2f       	mov	r20, r24
     6b0:	61 e3       	ldi	r22, 0x31	; 49
     6b2:	80 e0       	ldi	r24, 0x00	; 0
     6b4:	90 e0       	ldi	r25, 0x00	; 0
     6b6:	71 d3       	rcall	.+1762   	; 0xd9a <MCP2515_write>
     6b8:	8d 81       	ldd	r24, Y+5	; 0x05
     6ba:	9e 81       	ldd	r25, Y+6	; 0x06
     6bc:	fc 01       	movw	r30, r24
     6be:	82 81       	ldd	r24, Z+2	; 0x02
     6c0:	48 2f       	mov	r20, r24
     6c2:	65 e3       	ldi	r22, 0x35	; 53
     6c4:	80 e0       	ldi	r24, 0x00	; 0
     6c6:	90 e0       	ldi	r25, 0x00	; 0
     6c8:	68 d3       	rcall	.+1744   	; 0xd9a <MCP2515_write>
     6ca:	86 e3       	ldi	r24, 0x36	; 54
     6cc:	89 83       	std	Y+1, r24	; 0x01
     6ce:	1a 82       	std	Y+2, r1	; 0x02
     6d0:	15 c0       	rjmp	.+42     	; 0x6fc <CAN_sendMessage+0xa4>
     6d2:	8a 81       	ldd	r24, Y+2	; 0x02
     6d4:	88 2f       	mov	r24, r24
     6d6:	90 e0       	ldi	r25, 0x00	; 0
     6d8:	2d 81       	ldd	r18, Y+5	; 0x05
     6da:	3e 81       	ldd	r19, Y+6	; 0x06
     6dc:	82 0f       	add	r24, r18
     6de:	93 1f       	adc	r25, r19
     6e0:	03 96       	adiw	r24, 0x03	; 3
     6e2:	fc 01       	movw	r30, r24
     6e4:	80 81       	ld	r24, Z
     6e6:	48 2f       	mov	r20, r24
     6e8:	69 81       	ldd	r22, Y+1	; 0x01
     6ea:	80 e0       	ldi	r24, 0x00	; 0
     6ec:	90 e0       	ldi	r25, 0x00	; 0
     6ee:	55 d3       	rcall	.+1706   	; 0xd9a <MCP2515_write>
     6f0:	89 81       	ldd	r24, Y+1	; 0x01
     6f2:	8f 5f       	subi	r24, 0xFF	; 255
     6f4:	89 83       	std	Y+1, r24	; 0x01
     6f6:	8a 81       	ldd	r24, Y+2	; 0x02
     6f8:	8f 5f       	subi	r24, 0xFF	; 255
     6fa:	8a 83       	std	Y+2, r24	; 0x02
     6fc:	8d 81       	ldd	r24, Y+5	; 0x05
     6fe:	9e 81       	ldd	r25, Y+6	; 0x06
     700:	fc 01       	movw	r30, r24
     702:	92 81       	ldd	r25, Z+2	; 0x02
     704:	8a 81       	ldd	r24, Y+2	; 0x02
     706:	89 17       	cp	r24, r25
     708:	20 f3       	brcs	.-56     	; 0x6d2 <CAN_sendMessage+0x7a>
     70a:	2f ef       	ldi	r18, 0xFF	; 255
     70c:	48 e0       	ldi	r20, 0x08	; 8
     70e:	60 e3       	ldi	r22, 0x30	; 48
     710:	80 e0       	ldi	r24, 0x00	; 0
     712:	90 e0       	ldi	r25, 0x00	; 0
     714:	55 d3       	rcall	.+1706   	; 0xdc0 <MCP2515_bitModify>
     716:	00 00       	nop
     718:	27 96       	adiw	r28, 0x07	; 7
     71a:	0f b6       	in	r0, 0x3f	; 63
     71c:	f8 94       	cli
     71e:	de bf       	out	0x3e, r29	; 62
     720:	0f be       	out	0x3f, r0	; 63
     722:	cd bf       	out	0x3d, r28	; 61
     724:	df 91       	pop	r29
     726:	cf 91       	pop	r28
     728:	08 95       	ret

0000072a <CAN_receiveMessage>:
     72a:	0f 93       	push	r16
     72c:	1f 93       	push	r17
     72e:	cf 93       	push	r28
     730:	df 93       	push	r29
     732:	cd b7       	in	r28, 0x3d	; 61
     734:	de b7       	in	r29, 0x3e	; 62
     736:	61 97       	sbiw	r28, 0x11	; 17
     738:	0f b6       	in	r0, 0x3f	; 63
     73a:	f8 94       	cli
     73c:	de bf       	out	0x3e, r29	; 62
     73e:	0f be       	out	0x3f, r0	; 63
     740:	cd bf       	out	0x3d, r28	; 61
     742:	98 8b       	std	Y+16, r25	; 0x10
     744:	8f 87       	std	Y+15, r24	; 0x0f
     746:	69 8b       	std	Y+17, r22	; 0x11
     748:	89 89       	ldd	r24, Y+17	; 0x11
     74a:	88 2f       	mov	r24, r24
     74c:	90 e0       	ldi	r25, 0x00	; 0
     74e:	82 30       	cpi	r24, 0x02	; 2
     750:	91 05       	cpc	r25, r1
     752:	09 f4       	brne	.+2      	; 0x756 <CAN_receiveMessage+0x2c>
     754:	57 c0       	rjmp	.+174    	; 0x804 <CAN_receiveMessage+0xda>
     756:	83 30       	cpi	r24, 0x03	; 3
     758:	91 05       	cpc	r25, r1
     75a:	21 f0       	breq	.+8      	; 0x764 <CAN_receiveMessage+0x3a>
     75c:	81 30       	cpi	r24, 0x01	; 1
     75e:	91 05       	cpc	r25, r1
     760:	09 f0       	breq	.+2      	; 0x764 <CAN_receiveMessage+0x3a>
     762:	9f c0       	rjmp	.+318    	; 0x8a2 <CAN_receiveMessage+0x178>
     764:	61 e6       	ldi	r22, 0x61	; 97
     766:	80 e0       	ldi	r24, 0x00	; 0
     768:	90 e0       	ldi	r25, 0x00	; 0
     76a:	f4 d2       	rcall	.+1512   	; 0xd54 <MCP2515_read>
     76c:	88 2f       	mov	r24, r24
     76e:	90 e0       	ldi	r25, 0x00	; 0
     770:	9d 83       	std	Y+5, r25	; 0x05
     772:	8c 83       	std	Y+4, r24	; 0x04
     774:	8c 81       	ldd	r24, Y+4	; 0x04
     776:	9d 81       	ldd	r25, Y+5	; 0x05
     778:	8c 01       	movw	r16, r24
     77a:	00 0f       	add	r16, r16
     77c:	11 1f       	adc	r17, r17
     77e:	00 0f       	add	r16, r16
     780:	11 1f       	adc	r17, r17
     782:	00 0f       	add	r16, r16
     784:	11 1f       	adc	r17, r17
     786:	62 e6       	ldi	r22, 0x62	; 98
     788:	80 e0       	ldi	r24, 0x00	; 0
     78a:	90 e0       	ldi	r25, 0x00	; 0
     78c:	e3 d2       	rcall	.+1478   	; 0xd54 <MCP2515_read>
     78e:	82 95       	swap	r24
     790:	86 95       	lsr	r24
     792:	87 70       	andi	r24, 0x07	; 7
     794:	88 2f       	mov	r24, r24
     796:	90 e0       	ldi	r25, 0x00	; 0
     798:	80 2b       	or	r24, r16
     79a:	91 2b       	or	r25, r17
     79c:	9d 83       	std	Y+5, r25	; 0x05
     79e:	8c 83       	std	Y+4, r24	; 0x04
     7a0:	65 e6       	ldi	r22, 0x65	; 101
     7a2:	80 e0       	ldi	r24, 0x00	; 0
     7a4:	90 e0       	ldi	r25, 0x00	; 0
     7a6:	d6 d2       	rcall	.+1452   	; 0xd54 <MCP2515_read>
     7a8:	8e 83       	std	Y+6, r24	; 0x06
     7aa:	86 e6       	ldi	r24, 0x66	; 102
     7ac:	89 83       	std	Y+1, r24	; 0x01
     7ae:	1a 82       	std	Y+2, r1	; 0x02
     7b0:	14 c0       	rjmp	.+40     	; 0x7da <CAN_receiveMessage+0xb0>
     7b2:	8a 81       	ldd	r24, Y+2	; 0x02
     7b4:	08 2f       	mov	r16, r24
     7b6:	10 e0       	ldi	r17, 0x00	; 0
     7b8:	69 81       	ldd	r22, Y+1	; 0x01
     7ba:	80 e0       	ldi	r24, 0x00	; 0
     7bc:	90 e0       	ldi	r25, 0x00	; 0
     7be:	ca d2       	rcall	.+1428   	; 0xd54 <MCP2515_read>
     7c0:	28 2f       	mov	r18, r24
     7c2:	ce 01       	movw	r24, r28
     7c4:	07 96       	adiw	r24, 0x07	; 7
     7c6:	80 0f       	add	r24, r16
     7c8:	91 1f       	adc	r25, r17
     7ca:	fc 01       	movw	r30, r24
     7cc:	20 83       	st	Z, r18
     7ce:	89 81       	ldd	r24, Y+1	; 0x01
     7d0:	8f 5f       	subi	r24, 0xFF	; 255
     7d2:	89 83       	std	Y+1, r24	; 0x01
     7d4:	8a 81       	ldd	r24, Y+2	; 0x02
     7d6:	8f 5f       	subi	r24, 0xFF	; 255
     7d8:	8a 83       	std	Y+2, r24	; 0x02
     7da:	9e 81       	ldd	r25, Y+6	; 0x06
     7dc:	8a 81       	ldd	r24, Y+2	; 0x02
     7de:	89 17       	cp	r24, r25
     7e0:	40 f3       	brcs	.-48     	; 0x7b2 <CAN_receiveMessage+0x88>
     7e2:	20 e0       	ldi	r18, 0x00	; 0
     7e4:	41 e0       	ldi	r20, 0x01	; 1
     7e6:	6c e2       	ldi	r22, 0x2C	; 44
     7e8:	80 e0       	ldi	r24, 0x00	; 0
     7ea:	90 e0       	ldi	r25, 0x00	; 0
     7ec:	e9 d2       	rcall	.+1490   	; 0xdc0 <MCP2515_bitModify>
     7ee:	8f 85       	ldd	r24, Y+15	; 0x0f
     7f0:	98 89       	ldd	r25, Y+16	; 0x10
     7f2:	2b e0       	ldi	r18, 0x0B	; 11
     7f4:	fe 01       	movw	r30, r28
     7f6:	34 96       	adiw	r30, 0x04	; 4
     7f8:	dc 01       	movw	r26, r24
     7fa:	01 90       	ld	r0, Z+
     7fc:	0d 92       	st	X+, r0
     7fe:	2a 95       	dec	r18
     800:	e1 f7       	brne	.-8      	; 0x7fa <CAN_receiveMessage+0xd0>
     802:	4f c0       	rjmp	.+158    	; 0x8a2 <CAN_receiveMessage+0x178>
     804:	61 e7       	ldi	r22, 0x71	; 113
     806:	80 e0       	ldi	r24, 0x00	; 0
     808:	90 e0       	ldi	r25, 0x00	; 0
     80a:	a4 d2       	rcall	.+1352   	; 0xd54 <MCP2515_read>
     80c:	88 2f       	mov	r24, r24
     80e:	90 e0       	ldi	r25, 0x00	; 0
     810:	9d 83       	std	Y+5, r25	; 0x05
     812:	8c 83       	std	Y+4, r24	; 0x04
     814:	8c 81       	ldd	r24, Y+4	; 0x04
     816:	9d 81       	ldd	r25, Y+5	; 0x05
     818:	8c 01       	movw	r16, r24
     81a:	00 0f       	add	r16, r16
     81c:	11 1f       	adc	r17, r17
     81e:	00 0f       	add	r16, r16
     820:	11 1f       	adc	r17, r17
     822:	00 0f       	add	r16, r16
     824:	11 1f       	adc	r17, r17
     826:	62 e7       	ldi	r22, 0x72	; 114
     828:	80 e0       	ldi	r24, 0x00	; 0
     82a:	90 e0       	ldi	r25, 0x00	; 0
     82c:	93 d2       	rcall	.+1318   	; 0xd54 <MCP2515_read>
     82e:	82 95       	swap	r24
     830:	86 95       	lsr	r24
     832:	87 70       	andi	r24, 0x07	; 7
     834:	88 2f       	mov	r24, r24
     836:	90 e0       	ldi	r25, 0x00	; 0
     838:	80 2b       	or	r24, r16
     83a:	91 2b       	or	r25, r17
     83c:	9d 83       	std	Y+5, r25	; 0x05
     83e:	8c 83       	std	Y+4, r24	; 0x04
     840:	65 e7       	ldi	r22, 0x75	; 117
     842:	80 e0       	ldi	r24, 0x00	; 0
     844:	90 e0       	ldi	r25, 0x00	; 0
     846:	86 d2       	rcall	.+1292   	; 0xd54 <MCP2515_read>
     848:	8e 83       	std	Y+6, r24	; 0x06
     84a:	86 e7       	ldi	r24, 0x76	; 118
     84c:	89 83       	std	Y+1, r24	; 0x01
     84e:	1b 82       	std	Y+3, r1	; 0x03
     850:	14 c0       	rjmp	.+40     	; 0x87a <CAN_receiveMessage+0x150>
     852:	8b 81       	ldd	r24, Y+3	; 0x03
     854:	08 2f       	mov	r16, r24
     856:	10 e0       	ldi	r17, 0x00	; 0
     858:	69 81       	ldd	r22, Y+1	; 0x01
     85a:	80 e0       	ldi	r24, 0x00	; 0
     85c:	90 e0       	ldi	r25, 0x00	; 0
     85e:	7a d2       	rcall	.+1268   	; 0xd54 <MCP2515_read>
     860:	28 2f       	mov	r18, r24
     862:	ce 01       	movw	r24, r28
     864:	07 96       	adiw	r24, 0x07	; 7
     866:	80 0f       	add	r24, r16
     868:	91 1f       	adc	r25, r17
     86a:	fc 01       	movw	r30, r24
     86c:	20 83       	st	Z, r18
     86e:	89 81       	ldd	r24, Y+1	; 0x01
     870:	8f 5f       	subi	r24, 0xFF	; 255
     872:	89 83       	std	Y+1, r24	; 0x01
     874:	8b 81       	ldd	r24, Y+3	; 0x03
     876:	8f 5f       	subi	r24, 0xFF	; 255
     878:	8b 83       	std	Y+3, r24	; 0x03
     87a:	9e 81       	ldd	r25, Y+6	; 0x06
     87c:	8b 81       	ldd	r24, Y+3	; 0x03
     87e:	89 17       	cp	r24, r25
     880:	40 f3       	brcs	.-48     	; 0x852 <CAN_receiveMessage+0x128>
     882:	20 e0       	ldi	r18, 0x00	; 0
     884:	42 e0       	ldi	r20, 0x02	; 2
     886:	6c e2       	ldi	r22, 0x2C	; 44
     888:	80 e0       	ldi	r24, 0x00	; 0
     88a:	90 e0       	ldi	r25, 0x00	; 0
     88c:	99 d2       	rcall	.+1330   	; 0xdc0 <MCP2515_bitModify>
     88e:	8f 85       	ldd	r24, Y+15	; 0x0f
     890:	98 89       	ldd	r25, Y+16	; 0x10
     892:	2b e0       	ldi	r18, 0x0B	; 11
     894:	fe 01       	movw	r30, r28
     896:	34 96       	adiw	r30, 0x04	; 4
     898:	dc 01       	movw	r26, r24
     89a:	01 90       	ld	r0, Z+
     89c:	0d 92       	st	X+, r0
     89e:	2a 95       	dec	r18
     8a0:	e1 f7       	brne	.-8      	; 0x89a <CAN_receiveMessage+0x170>
     8a2:	8f 85       	ldd	r24, Y+15	; 0x0f
     8a4:	98 89       	ldd	r25, Y+16	; 0x10
     8a6:	61 96       	adiw	r28, 0x11	; 17
     8a8:	0f b6       	in	r0, 0x3f	; 63
     8aa:	f8 94       	cli
     8ac:	de bf       	out	0x3e, r29	; 62
     8ae:	0f be       	out	0x3f, r0	; 63
     8b0:	cd bf       	out	0x3d, r28	; 61
     8b2:	df 91       	pop	r29
     8b4:	cf 91       	pop	r28
     8b6:	1f 91       	pop	r17
     8b8:	0f 91       	pop	r16
     8ba:	08 95       	ret

000008bc <CAN_printMessage>:
     8bc:	cf 93       	push	r28
     8be:	df 93       	push	r29
     8c0:	00 d0       	rcall	.+0      	; 0x8c2 <CAN_printMessage+0x6>
     8c2:	1f 92       	push	r1
     8c4:	cd b7       	in	r28, 0x3d	; 61
     8c6:	de b7       	in	r29, 0x3e	; 62
     8c8:	9b 83       	std	Y+3, r25	; 0x03
     8ca:	8a 83       	std	Y+2, r24	; 0x02
     8cc:	8a 81       	ldd	r24, Y+2	; 0x02
     8ce:	9b 81       	ldd	r25, Y+3	; 0x03
     8d0:	fc 01       	movw	r30, r24
     8d2:	82 81       	ldd	r24, Z+2	; 0x02
     8d4:	28 2f       	mov	r18, r24
     8d6:	30 e0       	ldi	r19, 0x00	; 0
     8d8:	8a 81       	ldd	r24, Y+2	; 0x02
     8da:	9b 81       	ldd	r25, Y+3	; 0x03
     8dc:	fc 01       	movw	r30, r24
     8de:	80 81       	ld	r24, Z
     8e0:	91 81       	ldd	r25, Z+1	; 0x01
     8e2:	43 2f       	mov	r20, r19
     8e4:	4f 93       	push	r20
     8e6:	2f 93       	push	r18
     8e8:	29 2f       	mov	r18, r25
     8ea:	2f 93       	push	r18
     8ec:	8f 93       	push	r24
     8ee:	88 e1       	ldi	r24, 0x18	; 24
     8f0:	91 e0       	ldi	r25, 0x01	; 1
     8f2:	89 2f       	mov	r24, r25
     8f4:	8f 93       	push	r24
     8f6:	88 e1       	ldi	r24, 0x18	; 24
     8f8:	91 e0       	ldi	r25, 0x01	; 1
     8fa:	8f 93       	push	r24
     8fc:	0e 94 a2 0d 	call	0x1b44	; 0x1b44 <printf>
     900:	0f 90       	pop	r0
     902:	0f 90       	pop	r0
     904:	0f 90       	pop	r0
     906:	0f 90       	pop	r0
     908:	0f 90       	pop	r0
     90a:	0f 90       	pop	r0
     90c:	19 82       	std	Y+1, r1	; 0x01
     90e:	1f c0       	rjmp	.+62     	; 0x94e <CAN_printMessage+0x92>
     910:	89 81       	ldd	r24, Y+1	; 0x01
     912:	88 2f       	mov	r24, r24
     914:	90 e0       	ldi	r25, 0x00	; 0
     916:	2a 81       	ldd	r18, Y+2	; 0x02
     918:	3b 81       	ldd	r19, Y+3	; 0x03
     91a:	82 0f       	add	r24, r18
     91c:	93 1f       	adc	r25, r19
     91e:	03 96       	adiw	r24, 0x03	; 3
     920:	fc 01       	movw	r30, r24
     922:	80 81       	ld	r24, Z
     924:	88 2f       	mov	r24, r24
     926:	90 e0       	ldi	r25, 0x00	; 0
     928:	29 2f       	mov	r18, r25
     92a:	2f 93       	push	r18
     92c:	8f 93       	push	r24
     92e:	84 e4       	ldi	r24, 0x44	; 68
     930:	91 e0       	ldi	r25, 0x01	; 1
     932:	89 2f       	mov	r24, r25
     934:	8f 93       	push	r24
     936:	84 e4       	ldi	r24, 0x44	; 68
     938:	91 e0       	ldi	r25, 0x01	; 1
     93a:	8f 93       	push	r24
     93c:	0e 94 a2 0d 	call	0x1b44	; 0x1b44 <printf>
     940:	0f 90       	pop	r0
     942:	0f 90       	pop	r0
     944:	0f 90       	pop	r0
     946:	0f 90       	pop	r0
     948:	89 81       	ldd	r24, Y+1	; 0x01
     94a:	8f 5f       	subi	r24, 0xFF	; 255
     94c:	89 83       	std	Y+1, r24	; 0x01
     94e:	8a 81       	ldd	r24, Y+2	; 0x02
     950:	9b 81       	ldd	r25, Y+3	; 0x03
     952:	fc 01       	movw	r30, r24
     954:	92 81       	ldd	r25, Z+2	; 0x02
     956:	89 81       	ldd	r24, Y+1	; 0x01
     958:	89 17       	cp	r24, r25
     95a:	d0 f2       	brcs	.-76     	; 0x910 <CAN_printMessage+0x54>
     95c:	8a e0       	ldi	r24, 0x0A	; 10
     95e:	90 e0       	ldi	r25, 0x00	; 0
     960:	0e 94 b3 0d 	call	0x1b66	; 0x1b66 <putchar>
     964:	0f 90       	pop	r0
     966:	0f 90       	pop	r0
     968:	0f 90       	pop	r0
     96a:	df 91       	pop	r29
     96c:	cf 91       	pop	r28
     96e:	08 95       	ret

00000970 <enableXMEM>:


void enableXMEM(char releaseJtagPins)
{
	//enable XMEM
	set_bit(MCUCR, SRE);
     970:	95 b7       	in	r25, 0x35	; 53
     972:	90 68       	ori	r25, 0x80	; 128
     974:	95 bf       	out	0x35, r25	; 53
	
	//set waiting to one cycle
	set_bit(EMCUCR, SRW01);
     976:	96 b7       	in	r25, 0x36	; 54
     978:	98 60       	ori	r25, 0x08	; 8
     97a:	96 bf       	out	0x36, r25	; 54
	
	if(releaseJtagPins != 0)
     97c:	88 23       	and	r24, r24
     97e:	19 f0       	breq	.+6      	; 0x986 <enableXMEM+0x16>
	{
		//disable 4 bits in port D from XMEM - needed for JTAG interface To release ports PC7 - PC4 -> XMM2 - 1, XMM1 - 0, XMM0 - 0
		set_bit(SFIOR, XMM2);
     980:	80 b7       	in	r24, 0x30	; 48
     982:	80 62       	ori	r24, 0x20	; 32
     984:	80 bf       	out	0x30, r24	; 48
     986:	08 95       	ret

00000988 <readFromAddress>:
	}
}

uint8_t readFromAddress(volatile char* ptr)
{
	uint8_t val = *ptr;
     988:	fc 01       	movw	r30, r24
     98a:	80 81       	ld	r24, Z
	return val;
}
     98c:	08 95       	ret

0000098e <saveToAddress>:

void saveToAddress(volatile char* ptr, uint8_t data)
{
	*ptr = data;
     98e:	fc 01       	movw	r30, r24
     990:	60 83       	st	Z, r22
     992:	08 95       	ret

00000994 <JOY_init>:

//------------------------------------------------------------------------------
// set initial values for Position and Direction
void JOY_init()
{
	currentPosition.X_abs = 0;
     994:	10 92 69 02 	sts	0x0269, r1
     998:	10 92 68 02 	sts	0x0268, r1
	currentPosition.Y_abs = 0;
     99c:	10 92 6b 02 	sts	0x026B, r1
     9a0:	10 92 6a 02 	sts	0x026A, r1
	currentPosition.X_per = 0;
     9a4:	10 92 6d 02 	sts	0x026D, r1
     9a8:	10 92 6c 02 	sts	0x026C, r1
	currentPosition.Y_per = 0;
     9ac:	10 92 6f 02 	sts	0x026F, r1
     9b0:	10 92 6e 02 	sts	0x026E, r1
	currentDirection = CENTRE;
     9b4:	10 92 67 02 	sts	0x0267, r1
     9b8:	08 95       	ret

000009ba <JOY_calibrate>:

//------------------------------------------------------------------------------
// This function tracks the maximum and minimum value on joystick x and y axis.
// After a predefined period of time the mean value for both axes is calculated.
void JOY_calibrate()
{
     9ba:	cf 93       	push	r28
     9bc:	df 93       	push	r29
	uint8_t temp = 0;
	
	OLED_clear();
     9be:	59 d4       	rcall	.+2226   	; 0x1272 <OLED_clear>
     9c0:	60 e0       	ldi	r22, 0x00	; 0
	OLED_bufferGoto(0,0);
     9c2:	70 e0       	ldi	r23, 0x00	; 0
     9c4:	80 e0       	ldi	r24, 0x00	; 0
     9c6:	90 e0       	ldi	r25, 0x00	; 0
     9c8:	38 d5       	rcall	.+2672   	; 0x143a <OLED_bufferGoto>
     9ca:	88 e8       	ldi	r24, 0x88	; 136
     9cc:	91 e0       	ldi	r25, 0x01	; 1
	OLED_printString("JOY RIGHT");
     9ce:	74 d5       	rcall	.+2792   	; 0x14b8 <OLED_printString>
     9d0:	2f ef       	ldi	r18, 0xFF	; 255
     9d2:	8f ef       	ldi	r24, 0xFF	; 255
     9d4:	92 e0       	ldi	r25, 0x02	; 2
     9d6:	21 50       	subi	r18, 0x01	; 1
     9d8:	80 40       	sbci	r24, 0x00	; 0
     9da:	90 40       	sbci	r25, 0x00	; 0
     9dc:	e1 f7       	brne	.-8      	; 0x9d6 <JOY_calibrate+0x1c>
     9de:	00 c0       	rjmp	.+0      	; 0x9e0 <JOY_calibrate+0x26>
     9e0:	00 c0       	rjmp	.+0      	; 0x9e2 <JOY_calibrate+0x28>
     9e2:	c4 e1       	ldi	r28, 0x14	; 20
     9e4:	d0 e0       	ldi	r29, 0x00	; 0
     9e6:	60 91 06 01 	lds	r22, 0x0106
     9ea:	70 91 07 01 	lds	r23, 0x0107
	//printf("Move JOY to the right\n");
	_delay_ms(delay1);
	
	for(int i = 0; i < 20; i++)
	{
		ADC_request(X_channel, adc_ext_ram);
     9ee:	82 e0       	ldi	r24, 0x02	; 2
     9f0:	eb d6       	rcall	.+3542   	; 0x17c8 <ADC_request>
     9f2:	2f ef       	ldi	r18, 0xFF	; 255
     9f4:	8f e1       	ldi	r24, 0x1F	; 31
     9f6:	91 e0       	ldi	r25, 0x01	; 1
     9f8:	21 50       	subi	r18, 0x01	; 1
     9fa:	80 40       	sbci	r24, 0x00	; 0
     9fc:	90 40       	sbci	r25, 0x00	; 0
     9fe:	e1 f7       	brne	.-8      	; 0x9f8 <JOY_calibrate+0x3e>
     a00:	00 c0       	rjmp	.+0      	; 0xa02 <JOY_calibrate+0x48>
     a02:	00 00       	nop
     a04:	80 91 06 01 	lds	r24, 0x0106
     a08:	90 91 07 01 	lds	r25, 0x0107
		_delay_ms(delay2);
		temp = ADC_read(adc_ext_ram);
     a0c:	01 d7       	rcall	.+3586   	; 0x1810 <ADC_read>
     a0e:	90 91 0d 01 	lds	r25, 0x010D
     a12:	98 17       	cp	r25, r24
     a14:	10 f4       	brcc	.+4      	; 0xa1a <JOY_calibrate+0x60>
     a16:	80 93 0d 01 	sts	0x010D, r24
		
		if(temp > calR) {calR = temp;}
     a1a:	21 97       	sbiw	r28, 0x01	; 1
     a1c:	20 97       	sbiw	r28, 0x00	; 0
     a1e:	19 f7       	brne	.-58     	; 0x9e6 <JOY_calibrate+0x2c>
     a20:	60 e0       	ldi	r22, 0x00	; 0
     a22:	70 e0       	ldi	r23, 0x00	; 0
     a24:	81 e0       	ldi	r24, 0x01	; 1
	OLED_bufferGoto(0,0);
	OLED_printString("JOY RIGHT");
	//printf("Move JOY to the right\n");
	_delay_ms(delay1);
	
	for(int i = 0; i < 20; i++)
     a26:	90 e0       	ldi	r25, 0x00	; 0
     a28:	08 d5       	rcall	.+2576   	; 0x143a <OLED_bufferGoto>
		temp = ADC_read(adc_ext_ram);
		
		if(temp > calR) {calR = temp;}
	}
	
	OLED_bufferGoto(1,0);
     a2a:	82 e9       	ldi	r24, 0x92	; 146
     a2c:	91 e0       	ldi	r25, 0x01	; 1
     a2e:	44 d5       	rcall	.+2696   	; 0x14b8 <OLED_printString>
     a30:	2f ef       	ldi	r18, 0xFF	; 255
     a32:	8f ef       	ldi	r24, 0xFF	; 255
     a34:	92 e0       	ldi	r25, 0x02	; 2
	OLED_printString("JOY LEFT");
     a36:	21 50       	subi	r18, 0x01	; 1
     a38:	80 40       	sbci	r24, 0x00	; 0
     a3a:	90 40       	sbci	r25, 0x00	; 0
     a3c:	e1 f7       	brne	.-8      	; 0xa36 <JOY_calibrate+0x7c>
     a3e:	00 c0       	rjmp	.+0      	; 0xa40 <JOY_calibrate+0x86>
     a40:	00 c0       	rjmp	.+0      	; 0xa42 <JOY_calibrate+0x88>
     a42:	c4 e1       	ldi	r28, 0x14	; 20
     a44:	d0 e0       	ldi	r29, 0x00	; 0
     a46:	60 91 06 01 	lds	r22, 0x0106
     a4a:	70 91 07 01 	lds	r23, 0x0107
     a4e:	82 e0       	ldi	r24, 0x02	; 2
     a50:	bb d6       	rcall	.+3446   	; 0x17c8 <ADC_request>
     a52:	2f ef       	ldi	r18, 0xFF	; 255
	//printf("Move JOY to the left\n");
	_delay_ms(delay1);
	
	for(int i = 0; i < 20; i++)
	{
		ADC_request(X_channel, adc_ext_ram);
     a54:	8f e1       	ldi	r24, 0x1F	; 31
     a56:	91 e0       	ldi	r25, 0x01	; 1
     a58:	21 50       	subi	r18, 0x01	; 1
     a5a:	80 40       	sbci	r24, 0x00	; 0
     a5c:	90 40       	sbci	r25, 0x00	; 0
     a5e:	e1 f7       	brne	.-8      	; 0xa58 <JOY_calibrate+0x9e>
     a60:	00 c0       	rjmp	.+0      	; 0xa62 <JOY_calibrate+0xa8>
     a62:	00 00       	nop
     a64:	80 91 06 01 	lds	r24, 0x0106
     a68:	90 91 07 01 	lds	r25, 0x0107
     a6c:	d1 d6       	rcall	.+3490   	; 0x1810 <ADC_read>
     a6e:	90 91 0c 01 	lds	r25, 0x010C
     a72:	89 17       	cp	r24, r25
		_delay_ms(delay2);
		temp = ADC_read(adc_ext_ram);
     a74:	10 f4       	brcc	.+4      	; 0xa7a <JOY_calibrate+0xc0>
     a76:	80 93 0c 01 	sts	0x010C, r24
     a7a:	21 97       	sbiw	r28, 0x01	; 1
     a7c:	20 97       	sbiw	r28, 0x00	; 0
     a7e:	19 f7       	brne	.-58     	; 0xa46 <JOY_calibrate+0x8c>
		
		if(temp < calL) {calL = temp;}
     a80:	60 e0       	ldi	r22, 0x00	; 0
     a82:	70 e0       	ldi	r23, 0x00	; 0
     a84:	82 e0       	ldi	r24, 0x02	; 2
     a86:	90 e0       	ldi	r25, 0x00	; 0
     a88:	d8 d4       	rcall	.+2480   	; 0x143a <OLED_bufferGoto>
     a8a:	8b e9       	ldi	r24, 0x9B	; 155
     a8c:	91 e0       	ldi	r25, 0x01	; 1
	OLED_bufferGoto(1,0);
	OLED_printString("JOY LEFT");
	//printf("Move JOY to the left\n");
	_delay_ms(delay1);
	
	for(int i = 0; i < 20; i++)
     a8e:	14 d5       	rcall	.+2600   	; 0x14b8 <OLED_printString>
     a90:	2f ef       	ldi	r18, 0xFF	; 255
		temp = ADC_read(adc_ext_ram);
		
		if(temp < calL) {calL = temp;}
	}
	
	OLED_bufferGoto(2,0);
     a92:	8f ef       	ldi	r24, 0xFF	; 255
     a94:	92 e0       	ldi	r25, 0x02	; 2
     a96:	21 50       	subi	r18, 0x01	; 1
     a98:	80 40       	sbci	r24, 0x00	; 0
     a9a:	90 40       	sbci	r25, 0x00	; 0
     a9c:	e1 f7       	brne	.-8      	; 0xa96 <JOY_calibrate+0xdc>
	OLED_printString("JOY UP");
     a9e:	00 c0       	rjmp	.+0      	; 0xaa0 <JOY_calibrate+0xe6>
     aa0:	00 c0       	rjmp	.+0      	; 0xaa2 <JOY_calibrate+0xe8>
     aa2:	c4 e1       	ldi	r28, 0x14	; 20
     aa4:	d0 e0       	ldi	r29, 0x00	; 0
     aa6:	60 91 06 01 	lds	r22, 0x0106
     aaa:	70 91 07 01 	lds	r23, 0x0107
     aae:	81 e0       	ldi	r24, 0x01	; 1
     ab0:	8b d6       	rcall	.+3350   	; 0x17c8 <ADC_request>
     ab2:	2f ef       	ldi	r18, 0xFF	; 255
     ab4:	8f e1       	ldi	r24, 0x1F	; 31
     ab6:	91 e0       	ldi	r25, 0x01	; 1
     ab8:	21 50       	subi	r18, 0x01	; 1
     aba:	80 40       	sbci	r24, 0x00	; 0
	//printf("Move JOY up\n");
	_delay_ms(delay1);
	
	for(int i = 0; i < 20; i++)
	{
		ADC_request(Y_channel, adc_ext_ram);
     abc:	90 40       	sbci	r25, 0x00	; 0
     abe:	e1 f7       	brne	.-8      	; 0xab8 <JOY_calibrate+0xfe>
     ac0:	00 c0       	rjmp	.+0      	; 0xac2 <JOY_calibrate+0x108>
     ac2:	00 00       	nop
     ac4:	80 91 06 01 	lds	r24, 0x0106
     ac8:	90 91 07 01 	lds	r25, 0x0107
     acc:	a1 d6       	rcall	.+3394   	; 0x1810 <ADC_read>
     ace:	90 91 0b 01 	lds	r25, 0x010B
     ad2:	98 17       	cp	r25, r24
     ad4:	10 f4       	brcc	.+4      	; 0xada <JOY_calibrate+0x120>
     ad6:	80 93 0b 01 	sts	0x010B, r24
     ada:	21 97       	sbiw	r28, 0x01	; 1
		_delay_ms(delay2);
		temp = ADC_read(adc_ext_ram);
     adc:	20 97       	sbiw	r28, 0x00	; 0
     ade:	19 f7       	brne	.-58     	; 0xaa6 <JOY_calibrate+0xec>
     ae0:	60 e0       	ldi	r22, 0x00	; 0
     ae2:	70 e0       	ldi	r23, 0x00	; 0
     ae4:	83 e0       	ldi	r24, 0x03	; 3
     ae6:	90 e0       	ldi	r25, 0x00	; 0
		
		if(temp > calUp) {calUp = temp;}
     ae8:	a8 d4       	rcall	.+2384   	; 0x143a <OLED_bufferGoto>
     aea:	82 ea       	ldi	r24, 0xA2	; 162
     aec:	91 e0       	ldi	r25, 0x01	; 1
     aee:	e4 d4       	rcall	.+2504   	; 0x14b8 <OLED_printString>
     af0:	2f ef       	ldi	r18, 0xFF	; 255
     af2:	8f ef       	ldi	r24, 0xFF	; 255
     af4:	92 e0       	ldi	r25, 0x02	; 2
	OLED_bufferGoto(2,0);
	OLED_printString("JOY UP");
	//printf("Move JOY up\n");
	_delay_ms(delay1);
	
	for(int i = 0; i < 20; i++)
     af6:	21 50       	subi	r18, 0x01	; 1
     af8:	80 40       	sbci	r24, 0x00	; 0
		temp = ADC_read(adc_ext_ram);
		
		if(temp > calUp) {calUp = temp;}
	}
	
	OLED_bufferGoto(3,0);
     afa:	90 40       	sbci	r25, 0x00	; 0
     afc:	e1 f7       	brne	.-8      	; 0xaf6 <JOY_calibrate+0x13c>
     afe:	00 c0       	rjmp	.+0      	; 0xb00 <JOY_calibrate+0x146>
     b00:	00 c0       	rjmp	.+0      	; 0xb02 <JOY_calibrate+0x148>
     b02:	c4 e1       	ldi	r28, 0x14	; 20
     b04:	d0 e0       	ldi	r29, 0x00	; 0
	OLED_printString("JOY DOWN");
     b06:	60 91 06 01 	lds	r22, 0x0106
     b0a:	70 91 07 01 	lds	r23, 0x0107
     b0e:	81 e0       	ldi	r24, 0x01	; 1
     b10:	5b d6       	rcall	.+3254   	; 0x17c8 <ADC_request>
     b12:	2f ef       	ldi	r18, 0xFF	; 255
     b14:	8f e1       	ldi	r24, 0x1F	; 31
     b16:	91 e0       	ldi	r25, 0x01	; 1
     b18:	21 50       	subi	r18, 0x01	; 1
     b1a:	80 40       	sbci	r24, 0x00	; 0
     b1c:	90 40       	sbci	r25, 0x00	; 0
     b1e:	e1 f7       	brne	.-8      	; 0xb18 <JOY_calibrate+0x15e>
     b20:	00 c0       	rjmp	.+0      	; 0xb22 <JOY_calibrate+0x168>
     b22:	00 00       	nop
	//printf("Move JOY down\n");
	_delay_ms(delay1);
	
	for(int i = 0; i < 20; i++)
	{
		ADC_request(Y_channel, adc_ext_ram);
     b24:	80 91 06 01 	lds	r24, 0x0106
     b28:	90 91 07 01 	lds	r25, 0x0107
     b2c:	71 d6       	rcall	.+3298   	; 0x1810 <ADC_read>
     b2e:	90 91 0a 01 	lds	r25, 0x010A
     b32:	89 17       	cp	r24, r25
     b34:	10 f4       	brcc	.+4      	; 0xb3a <JOY_calibrate+0x180>
     b36:	80 93 0a 01 	sts	0x010A, r24
     b3a:	21 97       	sbiw	r28, 0x01	; 1
     b3c:	20 97       	sbiw	r28, 0x00	; 0
     b3e:	19 f7       	brne	.-58     	; 0xb06 <JOY_calibrate+0x14c>
     b40:	20 91 0b 01 	lds	r18, 0x010B
		_delay_ms(delay2);
		temp = ADC_read(adc_ext_ram);
     b44:	80 91 0a 01 	lds	r24, 0x010A
     b48:	30 e0       	ldi	r19, 0x00	; 0
     b4a:	28 1b       	sub	r18, r24
     b4c:	31 09       	sbc	r19, r1
     b4e:	c9 01       	movw	r24, r18
		
		if(temp < calDown) {calDown = temp;}
     b50:	99 23       	and	r25, r25
     b52:	0c f4       	brge	.+2      	; 0xb56 <JOY_calibrate+0x19c>
     b54:	01 96       	adiw	r24, 0x01	; 1
     b56:	95 95       	asr	r25
     b58:	87 95       	ror	r24
     b5a:	80 93 09 01 	sts	0x0109, r24
	OLED_bufferGoto(3,0);
	OLED_printString("JOY DOWN");
	//printf("Move JOY down\n");
	_delay_ms(delay1);
	
	for(int i = 0; i < 20; i++)
     b5e:	20 91 0d 01 	lds	r18, 0x010D
	}
	
	
	//printf("calR: %d, calL: %d, calUp:%d, calDown:%d\n", calR, calL, calUp, calDown);
	
	meanVert = (calUp - calDown)/2;
     b62:	80 91 0c 01 	lds	r24, 0x010C
     b66:	30 e0       	ldi	r19, 0x00	; 0
     b68:	28 1b       	sub	r18, r24
     b6a:	31 09       	sbc	r19, r1
     b6c:	c9 01       	movw	r24, r18
     b6e:	99 23       	and	r25, r25
     b70:	0c f4       	brge	.+2      	; 0xb74 <JOY_calibrate+0x1ba>
     b72:	01 96       	adiw	r24, 0x01	; 1
     b74:	95 95       	asr	r25
     b76:	87 95       	ror	r24
     b78:	80 93 08 01 	sts	0x0108, r24
     b7c:	60 e0       	ldi	r22, 0x00	; 0
     b7e:	70 e0       	ldi	r23, 0x00	; 0
	meanHor = (calR - calL)/2;
     b80:	84 e0       	ldi	r24, 0x04	; 4
     b82:	90 e0       	ldi	r25, 0x00	; 0
     b84:	5a d4       	rcall	.+2228   	; 0x143a <OLED_bufferGoto>
     b86:	8b ea       	ldi	r24, 0xAB	; 171
     b88:	91 e0       	ldi	r25, 0x01	; 1
     b8a:	96 d4       	rcall	.+2348   	; 0x14b8 <OLED_printString>
     b8c:	2f ef       	ldi	r18, 0xFF	; 255
     b8e:	8f ef       	ldi	r24, 0xFF	; 255
     b90:	9e e0       	ldi	r25, 0x0E	; 14
     b92:	21 50       	subi	r18, 0x01	; 1
     b94:	80 40       	sbci	r24, 0x00	; 0
     b96:	90 40       	sbci	r25, 0x00	; 0
     b98:	e1 f7       	brne	.-8      	; 0xb92 <JOY_calibrate+0x1d8>
     b9a:	00 c0       	rjmp	.+0      	; 0xb9c <JOY_calibrate+0x1e2>
     b9c:	00 00       	nop
	
	OLED_bufferGoto(4,0);
     b9e:	df 91       	pop	r29
     ba0:	cf 91       	pop	r28
     ba2:	08 95       	ret

00000ba4 <JOY_requestCurrentPosition>:
     ba4:	88 37       	cpi	r24, 0x78	; 120
     ba6:	39 f4       	brne	.+14     	; 0xbb6 <JOY_requestCurrentPosition+0x12>
     ba8:	60 91 06 01 	lds	r22, 0x0106
	OLED_printString("CALIB DONE");
     bac:	70 91 07 01 	lds	r23, 0x0107
     bb0:	82 e0       	ldi	r24, 0x02	; 2
     bb2:	0a c6       	rjmp	.+3092   	; 0x17c8 <ADC_request>
     bb4:	08 95       	ret
     bb6:	89 37       	cpi	r24, 0x79	; 121
     bb8:	31 f4       	brne	.+12     	; 0xbc6 <JOY_requestCurrentPosition+0x22>
     bba:	60 91 06 01 	lds	r22, 0x0106
     bbe:	70 91 07 01 	lds	r23, 0x0107
     bc2:	81 e0       	ldi	r24, 0x01	; 1
	//printf("Calibration done.. new VM: %d HM:%d\n", meanVert, meanHor);
	_delay_ms(1000);
}
     bc4:	01 c6       	rjmp	.+3074   	; 0x17c8 <ADC_request>
     bc6:	08 95       	ret

00000bc8 <JOY_updatePosition>:
     bc8:	88 37       	cpi	r24, 0x78	; 120
		ADC_request(X_channel, adc_ext_ram);
	}
	
	else if(axis == 'y')
	{
		ADC_request(Y_channel, adc_ext_ram);
     bca:	f9 f4       	brne	.+62     	; 0xc0a <JOY_updatePosition+0x42>
// 3.) Call method to calculate current direction.
void JOY_updatePosition(char axis)
{
	if(axis == 'x')
	{
		currentPosition.X_abs = ADC_read(adc_ext_ram);
     bcc:	80 91 06 01 	lds	r24, 0x0106
     bd0:	90 91 07 01 	lds	r25, 0x0107
     bd4:	1d d6       	rcall	.+3130   	; 0x1810 <ADC_read>
     bd6:	90 e0       	ldi	r25, 0x00	; 0
     bd8:	90 93 69 02 	sts	0x0269, r25
     bdc:	80 93 68 02 	sts	0x0268, r24
     be0:	20 91 08 01 	lds	r18, 0x0108
		currentPosition.X_per = ((int)currentPosition.X_abs -  (int)meanHor)*100 / (int) meanHor;
     be4:	60 91 08 01 	lds	r22, 0x0108
     be8:	ac 01       	movw	r20, r24
     bea:	42 1b       	sub	r20, r18
     bec:	51 09       	sbc	r21, r1
     bee:	9a 01       	movw	r18, r20
     bf0:	44 e6       	ldi	r20, 0x64	; 100
     bf2:	42 9f       	mul	r20, r18
     bf4:	c0 01       	movw	r24, r0
     bf6:	43 9f       	mul	r20, r19
     bf8:	90 0d       	add	r25, r0
     bfa:	11 24       	eor	r1, r1
     bfc:	70 e0       	ldi	r23, 0x00	; 0
     bfe:	0a d6       	rcall	.+3092   	; 0x1814 <__divmodhi4>
     c00:	70 93 6d 02 	sts	0x026D, r23
     c04:	60 93 6c 02 	sts	0x026C, r22
     c08:	08 95       	ret
     c0a:	89 37       	cpi	r24, 0x79	; 121
     c0c:	f1 f4       	brne	.+60     	; 0xc4a <JOY_updatePosition+0x82>
	}

	else if(axis == 'y')
     c0e:	80 91 06 01 	lds	r24, 0x0106
	{
		currentPosition.Y_abs = ADC_read(adc_ext_ram);
     c12:	90 91 07 01 	lds	r25, 0x0107
     c16:	fc d5       	rcall	.+3064   	; 0x1810 <ADC_read>
     c18:	90 e0       	ldi	r25, 0x00	; 0
     c1a:	90 93 6b 02 	sts	0x026B, r25
     c1e:	80 93 6a 02 	sts	0x026A, r24
     c22:	20 91 09 01 	lds	r18, 0x0109
     c26:	60 91 09 01 	lds	r22, 0x0109
		currentPosition.Y_per = ((int)currentPosition.Y_abs -  (int)meanVert)*100 / (int) meanVert;
     c2a:	ac 01       	movw	r20, r24
     c2c:	42 1b       	sub	r20, r18
     c2e:	51 09       	sbc	r21, r1
     c30:	9a 01       	movw	r18, r20
     c32:	44 e6       	ldi	r20, 0x64	; 100
     c34:	42 9f       	mul	r20, r18
     c36:	c0 01       	movw	r24, r0
     c38:	43 9f       	mul	r20, r19
     c3a:	90 0d       	add	r25, r0
     c3c:	11 24       	eor	r1, r1
     c3e:	70 e0       	ldi	r23, 0x00	; 0
     c40:	e9 d5       	rcall	.+3026   	; 0x1814 <__divmodhi4>
     c42:	70 93 6f 02 	sts	0x026F, r23
     c46:	60 93 6e 02 	sts	0x026E, r22
     c4a:	08 95       	ret

00000c4c <JOY_calculateDirection>:
     c4c:	80 91 6c 02 	lds	r24, 0x026C
     c50:	90 91 6d 02 	lds	r25, 0x026D
//------------------------------------------------------------------------------
// Calculate the current direction based on the relative value X_per.
// A direction is valid after the threshold of 50% was passed.
void JOY_calculateDirection()
{
	if(currentPosition.X_per > 90) {
     c54:	8b 35       	cpi	r24, 0x5B	; 91
     c56:	91 05       	cpc	r25, r1
     c58:	24 f0       	brlt	.+8      	; 0xc62 <JOY_calculateDirection+0x16>
	currentDirection = RIGHT;}
     c5a:	83 e0       	ldi	r24, 0x03	; 3
     c5c:	80 93 67 02 	sts	0x0267, r24
     c60:	08 95       	ret
	else if(currentPosition.X_per < -90) {
     c62:	86 3a       	cpi	r24, 0xA6	; 166
     c64:	9f 4f       	sbci	r25, 0xFF	; 255
     c66:	24 f4       	brge	.+8      	; 0xc70 <JOY_calculateDirection+0x24>
	currentDirection = LEFT;}
     c68:	84 e0       	ldi	r24, 0x04	; 4
     c6a:	80 93 67 02 	sts	0x0267, r24
     c6e:	08 95       	ret
	else if(currentPosition.Y_per > 90) {
     c70:	80 91 6e 02 	lds	r24, 0x026E
     c74:	90 91 6f 02 	lds	r25, 0x026F
     c78:	8b 35       	cpi	r24, 0x5B	; 91
     c7a:	91 05       	cpc	r25, r1
     c7c:	24 f0       	brlt	.+8      	; 0xc86 <JOY_calculateDirection+0x3a>
	currentDirection = UP;}
     c7e:	81 e0       	ldi	r24, 0x01	; 1
     c80:	80 93 67 02 	sts	0x0267, r24
     c84:	08 95       	ret
	else if(currentPosition.Y_per < -90) {
     c86:	86 3a       	cpi	r24, 0xA6	; 166
     c88:	9f 4f       	sbci	r25, 0xFF	; 255
     c8a:	24 f4       	brge	.+8      	; 0xc94 <JOY_calculateDirection+0x48>
	currentDirection = DOWN;}
     c8c:	82 e0       	ldi	r24, 0x02	; 2
     c8e:	80 93 67 02 	sts	0x0267, r24
     c92:	08 95       	ret
	else{currentDirection = CENTRE;}
     c94:	10 92 67 02 	sts	0x0267, r1
     c98:	08 95       	ret

00000c9a <JOY_getPosition>:

//------------------------------------------------------------------------------
// This function returns the current position of the Joystick.
// It is a struct with the four parameters X_abs, Y_abs, X_per and Y_per
JOY_position_t JOY_getPosition()
{
     c9a:	cf 93       	push	r28
     c9c:	df 93       	push	r29
     c9e:	cd b7       	in	r28, 0x3d	; 61
     ca0:	de b7       	in	r29, 0x3e	; 62
     ca2:	28 97       	sbiw	r28, 0x08	; 8
     ca4:	0f b6       	in	r0, 0x3f	; 63
     ca6:	f8 94       	cli
     ca8:	de bf       	out	0x3e, r29	; 62
     caa:	0f be       	out	0x3f, r0	; 63
     cac:	cd bf       	out	0x3d, r28	; 61
	JOY_requestCurrentPosition('x');
     cae:	88 e7       	ldi	r24, 0x78	; 120
     cb0:	79 df       	rcall	.-270    	; 0xba4 <JOY_requestCurrentPosition>
     cb2:	82 e6       	ldi	r24, 0x62	; 98
	#else
		//round up by default
		__ticks_dc = (uint32_t)(ceil(fabs(__tmp)));
	#endif

	__builtin_avr_delay_cycles(__ticks_dc);
     cb4:	8a 95       	dec	r24
     cb6:	f1 f7       	brne	.-4      	; 0xcb4 <JOY_getPosition+0x1a>
     cb8:	00 00       	nop
     cba:	88 e7       	ldi	r24, 0x78	; 120
	_delay_us(delayConversion);
	JOY_updatePosition('x');
     cbc:	85 df       	rcall	.-246    	; 0xbc8 <JOY_updatePosition>
     cbe:	89 e7       	ldi	r24, 0x79	; 121
     cc0:	71 df       	rcall	.-286    	; 0xba4 <JOY_requestCurrentPosition>
	JOY_requestCurrentPosition('y');
     cc2:	82 e6       	ldi	r24, 0x62	; 98
     cc4:	8a 95       	dec	r24
     cc6:	f1 f7       	brne	.-4      	; 0xcc4 <JOY_getPosition+0x2a>
     cc8:	00 00       	nop
     cca:	89 e7       	ldi	r24, 0x79	; 121
     ccc:	7d df       	rcall	.-262    	; 0xbc8 <JOY_updatePosition>
     cce:	88 e0       	ldi	r24, 0x08	; 8
	_delay_us(delayConversion);
	JOY_updatePosition('y');
     cd0:	e8 e6       	ldi	r30, 0x68	; 104
     cd2:	f2 e0       	ldi	r31, 0x02	; 2
     cd4:	de 01       	movw	r26, r28
	return currentPosition;
     cd6:	11 96       	adiw	r26, 0x01	; 1
     cd8:	01 90       	ld	r0, Z+
     cda:	0d 92       	st	X+, r0
     cdc:	8a 95       	dec	r24
     cde:	e1 f7       	brne	.-8      	; 0xcd8 <JOY_getPosition+0x3e>
     ce0:	29 81       	ldd	r18, Y+1	; 0x01
     ce2:	3a 81       	ldd	r19, Y+2	; 0x02
     ce4:	4b 81       	ldd	r20, Y+3	; 0x03
     ce6:	5c 81       	ldd	r21, Y+4	; 0x04
     ce8:	6d 81       	ldd	r22, Y+5	; 0x05
     cea:	7e 81       	ldd	r23, Y+6	; 0x06
     cec:	8f 81       	ldd	r24, Y+7	; 0x07
     cee:	98 85       	ldd	r25, Y+8	; 0x08
     cf0:	28 96       	adiw	r28, 0x08	; 8
     cf2:	0f b6       	in	r0, 0x3f	; 63
}
     cf4:	f8 94       	cli
     cf6:	de bf       	out	0x3e, r29	; 62
     cf8:	0f be       	out	0x3f, r0	; 63
     cfa:	cd bf       	out	0x3d, r28	; 61
     cfc:	df 91       	pop	r29
     cfe:	cf 91       	pop	r28
     d00:	08 95       	ret

00000d02 <JOY_getDirection>:
     d02:	88 e7       	ldi	r24, 0x78	; 120
     d04:	4f df       	rcall	.-354    	; 0xba4 <JOY_requestCurrentPosition>
     d06:	82 e6       	ldi	r24, 0x62	; 98
     d08:	8a 95       	dec	r24
     d0a:	f1 f7       	brne	.-4      	; 0xd08 <JOY_getDirection+0x6>
     d0c:	00 00       	nop
     d0e:	88 e7       	ldi	r24, 0x78	; 120
// currentDirection variables.
JOY_direction_t JOY_getDirection()
{
	JOY_requestCurrentPosition('x');
	_delay_us(delayConversion);
	JOY_updatePosition('x');
     d10:	5b df       	rcall	.-330    	; 0xbc8 <JOY_updatePosition>
     d12:	89 e7       	ldi	r24, 0x79	; 121
     d14:	47 df       	rcall	.-370    	; 0xba4 <JOY_requestCurrentPosition>
	JOY_requestCurrentPosition('y');
     d16:	82 e6       	ldi	r24, 0x62	; 98
     d18:	8a 95       	dec	r24
     d1a:	f1 f7       	brne	.-4      	; 0xd18 <JOY_getDirection+0x16>
     d1c:	00 00       	nop
     d1e:	89 e7       	ldi	r24, 0x79	; 121
     d20:	53 df       	rcall	.-346    	; 0xbc8 <JOY_updatePosition>
     d22:	94 df       	rcall	.-216    	; 0xc4c <JOY_calculateDirection>
	_delay_us(delayConversion);
	JOY_updatePosition('y');
     d24:	80 91 67 02 	lds	r24, 0x0267
     d28:	08 95       	ret

00000d2a <MCP2515_reset>:
	//printf("finished MCP2515_init\n");
	return 0;
}

 void MCP2515_reset(SPI_SLAVES slave)
{
     d2a:	cf 93       	push	r28
     d2c:	c8 2f       	mov	r28, r24
	SPI_activateSlave(slave);
     d2e:	23 d5       	rcall	.+2630   	; 0x1776 <SPI_activateSlave>
     d30:	80 ec       	ldi	r24, 0xC0	; 192
	SPI_send(MCP_RESET);
     d32:	17 d5       	rcall	.+2606   	; 0x1762 <SPI_send>
     d34:	8c ec       	ldi	r24, 0xCC	; 204
     d36:	94 e0       	ldi	r25, 0x04	; 4
	#else
		//round up by default
		__ticks_dc = (uint32_t)(ceil(fabs(__tmp)));
	#endif

	__builtin_avr_delay_cycles(__ticks_dc);
     d38:	01 97       	sbiw	r24, 0x01	; 1
     d3a:	f1 f7       	brne	.-4      	; 0xd38 <MCP2515_reset+0xe>
     d3c:	00 c0       	rjmp	.+0      	; 0xd3e <MCP2515_reset+0x14>
     d3e:	00 00       	nop
     d40:	8c 2f       	mov	r24, r28
     d42:	1d d5       	rcall	.+2618   	; 0x177e <SPI_deactivateSlave>
	_delay_ms(1);
	SPI_deactivateSlave(slave);
     d44:	8f ef       	ldi	r24, 0xFF	; 255
     d46:	9f e2       	ldi	r25, 0x2F	; 47
     d48:	01 97       	sbiw	r24, 0x01	; 1
     d4a:	f1 f7       	brne	.-4      	; 0xd48 <MCP2515_reset+0x1e>
     d4c:	00 c0       	rjmp	.+0      	; 0xd4e <MCP2515_reset+0x24>
     d4e:	00 00       	nop
     d50:	cf 91       	pop	r28
     d52:	08 95       	ret

00000d54 <MCP2515_read>:
     d54:	cf 93       	push	r28
	_delay_ms(10);
}
     d56:	df 93       	push	r29
     d58:	c8 2f       	mov	r28, r24

uint8_t MCP2515_read(SPI_SLAVES slave, uint8_t address)
{
     d5a:	d6 2f       	mov	r29, r22
	SPI_activateSlave(slave);
     d5c:	0c d5       	rcall	.+2584   	; 0x1776 <SPI_activateSlave>
     d5e:	83 e0       	ldi	r24, 0x03	; 3
	SPI_send(MCP_READ);
     d60:	00 d5       	rcall	.+2560   	; 0x1762 <SPI_send>
     d62:	8c ec       	ldi	r24, 0xCC	; 204
     d64:	94 e0       	ldi	r25, 0x04	; 4
     d66:	01 97       	sbiw	r24, 0x01	; 1
     d68:	f1 f7       	brne	.-4      	; 0xd66 <MCP2515_read+0x12>
     d6a:	00 c0       	rjmp	.+0      	; 0xd6c <MCP2515_read+0x18>
     d6c:	00 00       	nop
     d6e:	8d 2f       	mov	r24, r29
     d70:	f8 d4       	rcall	.+2544   	; 0x1762 <SPI_send>
	_delay_ms(1);
	SPI_send(address);
     d72:	fb d4       	rcall	.+2550   	; 0x176a <SPI_receive>
     d74:	d8 2f       	mov	r29, r24
     d76:	8c 2f       	mov	r24, r28
	
	uint8_t result;
	result = SPI_receive();
     d78:	02 d5       	rcall	.+2564   	; 0x177e <SPI_deactivateSlave>
     d7a:	8d 2f       	mov	r24, r29
     d7c:	df 91       	pop	r29
	
	SPI_deactivateSlave(slave);
     d7e:	cf 91       	pop	r28
     d80:	08 95       	ret

00000d82 <MCP2515_init>:
     d82:	80 e0       	ldi	r24, 0x00	; 0
	return result;
}
     d84:	d2 df       	rcall	.-92     	; 0xd2a <MCP2515_reset>
     d86:	6e e0       	ldi	r22, 0x0E	; 14
     d88:	80 e0       	ldi	r24, 0x00	; 0
     d8a:	e4 df       	rcall	.-56     	; 0xd54 <MCP2515_read>
uint8_t MCP2515_init()
{
	MCP2515_reset(SS_CAN_CONTROLLER); // Send reset-command
	// Self-test
	uint8_t value;
	value = MCP2515_read(SS_CAN_CONTROLLER, MCP_CANSTAT);
     d8c:	98 2f       	mov	r25, r24
     d8e:	90 7e       	andi	r25, 0xE0	; 224
	//printf("CANSTAT: %#x\n", value);
	if((value & MODE_MASK) != MODE_CONFIG) 
     d90:	81 e0       	ldi	r24, 0x01	; 1
     d92:	90 38       	cpi	r25, 0x80	; 128
     d94:	09 f4       	brne	.+2      	; 0xd98 <MCP2515_init+0x16>
     d96:	80 e0       	ldi	r24, 0x00	; 0
     d98:	08 95       	ret

00000d9a <MCP2515_write>:
     d9a:	1f 93       	push	r17
		return 1;
	}
	//
	//printf("finished MCP2515_init\n");
	return 0;
}
     d9c:	cf 93       	push	r28
	SPI_deactivateSlave(slave);
	return result;
}

void MCP2515_write(SPI_SLAVES slave, uint8_t address, uint8_t data)
{
     d9e:	df 93       	push	r29
     da0:	c8 2f       	mov	r28, r24
     da2:	16 2f       	mov	r17, r22
     da4:	d4 2f       	mov	r29, r20
	SPI_activateSlave(slave);
     da6:	e7 d4       	rcall	.+2510   	; 0x1776 <SPI_activateSlave>
     da8:	82 e0       	ldi	r24, 0x02	; 2
	SPI_send(MCP_WRITE);
     daa:	db d4       	rcall	.+2486   	; 0x1762 <SPI_send>
     dac:	81 2f       	mov	r24, r17
     dae:	d9 d4       	rcall	.+2482   	; 0x1762 <SPI_send>
	SPI_send(address);
     db0:	8d 2f       	mov	r24, r29
     db2:	d7 d4       	rcall	.+2478   	; 0x1762 <SPI_send>
     db4:	8c 2f       	mov	r24, r28
	SPI_send(data);
     db6:	e3 d4       	rcall	.+2502   	; 0x177e <SPI_deactivateSlave>
     db8:	df 91       	pop	r29
     dba:	cf 91       	pop	r28
	SPI_deactivateSlave(slave);
     dbc:	1f 91       	pop	r17
     dbe:	08 95       	ret

00000dc0 <MCP2515_bitModify>:
     dc0:	0f 93       	push	r16
}
     dc2:	1f 93       	push	r17
     dc4:	cf 93       	push	r28
     dc6:	df 93       	push	r29
     dc8:	c8 2f       	mov	r28, r24
	SPI_deactivateSlave(slave);
	return result;
}

void MCP2515_bitModify(SPI_SLAVES slave, uint8_t register2change, uint8_t mask, uint8_t newValue)
{
     dca:	06 2f       	mov	r16, r22
     dcc:	14 2f       	mov	r17, r20
     dce:	d2 2f       	mov	r29, r18
	SPI_activateSlave(slave);
     dd0:	d2 d4       	rcall	.+2468   	; 0x1776 <SPI_activateSlave>
     dd2:	85 e0       	ldi	r24, 0x05	; 5
	
	SPI_send(MCP_BITMOD);
     dd4:	c6 d4       	rcall	.+2444   	; 0x1762 <SPI_send>
     dd6:	80 2f       	mov	r24, r16
     dd8:	c4 d4       	rcall	.+2440   	; 0x1762 <SPI_send>
	SPI_send(register2change);
     dda:	81 2f       	mov	r24, r17
     ddc:	c2 d4       	rcall	.+2436   	; 0x1762 <SPI_send>
     dde:	8d 2f       	mov	r24, r29
	SPI_send(mask);
     de0:	c0 d4       	rcall	.+2432   	; 0x1762 <SPI_send>
     de2:	8c 2f       	mov	r24, r28
     de4:	cc d4       	rcall	.+2456   	; 0x177e <SPI_deactivateSlave>
	SPI_send(newValue);
     de6:	df 91       	pop	r29
     de8:	cf 91       	pop	r28
     dea:	1f 91       	pop	r17
	
	SPI_deactivateSlave(slave);
     dec:	0f 91       	pop	r16
     dee:	08 95       	ret

00000df0 <startGame>:

static int menuFrameOffset = 10; //Columns from left frame border
//******************************************************************************************

void startGame()
{
     df0:	cf 93       	push	r28
     df2:	df 93       	push	r29
	OLED_clear();
     df4:	3e d2       	rcall	.+1148   	; 0x1272 <OLED_clear>
     df6:	60 e0       	ldi	r22, 0x00	; 0
	OLED_bufferGoto(0,0);
     df8:	70 e0       	ldi	r23, 0x00	; 0
     dfa:	80 e0       	ldi	r24, 0x00	; 0
     dfc:	90 e0       	ldi	r25, 0x00	; 0
     dfe:	1d d3       	rcall	.+1594   	; 0x143a <OLED_bufferGoto>
     e00:	86 eb       	ldi	r24, 0xB6	; 182
     e02:	91 e0       	ldi	r25, 0x01	; 1
	OLED_printString("START");
     e04:	59 d3       	rcall	.+1714   	; 0x14b8 <OLED_printString>
     e06:	60 e0       	ldi	r22, 0x00	; 0
     e08:	70 e0       	ldi	r23, 0x00	; 0
     e0a:	83 e0       	ldi	r24, 0x03	; 3
	
	OLED_bufferGoto(3,0);
     e0c:	90 e0       	ldi	r25, 0x00	; 0
     e0e:	15 d3       	rcall	.+1578   	; 0x143a <OLED_bufferGoto>
     e10:	ce e0       	ldi	r28, 0x0E	; 14
     e12:	d0 e0       	ldi	r29, 0x00	; 0
     e14:	8c eb       	ldi	r24, 0xBC	; 188
     e16:	91 e0       	ldi	r25, 0x01	; 1
     e18:	4f d3       	rcall	.+1694   	; 0x14b8 <OLED_printString>
     e1a:	2f ef       	ldi	r18, 0xFF	; 255
	
	for(int i = 14; i > 0; i--)
	{
		OLED_printString("*");
     e1c:	8f e7       	ldi	r24, 0x7F	; 127
     e1e:	97 e0       	ldi	r25, 0x07	; 7
     e20:	21 50       	subi	r18, 0x01	; 1
     e22:	80 40       	sbci	r24, 0x00	; 0
     e24:	90 40       	sbci	r25, 0x00	; 0
     e26:	e1 f7       	brne	.-8      	; 0xe20 <startGame+0x30>
     e28:	00 c0       	rjmp	.+0      	; 0xe2a <startGame+0x3a>
     e2a:	00 00       	nop
     e2c:	21 97       	sbiw	r28, 0x01	; 1
     e2e:	20 97       	sbiw	r28, 0x00	; 0
     e30:	89 f7       	brne	.-30     	; 0xe14 <startGame+0x24>
     e32:	60 e0       	ldi	r22, 0x00	; 0
     e34:	70 e0       	ldi	r23, 0x00	; 0
     e36:	85 e0       	ldi	r24, 0x05	; 5
	OLED_bufferGoto(0,0);
	OLED_printString("START");
	
	OLED_bufferGoto(3,0);
	
	for(int i = 14; i > 0; i--)
     e38:	90 e0       	ldi	r25, 0x00	; 0
     e3a:	ff d2       	rcall	.+1534   	; 0x143a <OLED_bufferGoto>
	{
		OLED_printString("*");
		_delay_ms(500);
	}
	
	OLED_bufferGoto(5,0);
     e3c:	8e eb       	ldi	r24, 0xBE	; 190
     e3e:	91 e0       	ldi	r25, 0x01	; 1
     e40:	3b d3       	rcall	.+1654   	; 0x14b8 <OLED_printString>
     e42:	2f ef       	ldi	r18, 0xFF	; 255
     e44:	8f ef       	ldi	r24, 0xFF	; 255
     e46:	9c e2       	ldi	r25, 0x2C	; 44
	OLED_printString("YUPII :)");
     e48:	21 50       	subi	r18, 0x01	; 1
     e4a:	80 40       	sbci	r24, 0x00	; 0
     e4c:	90 40       	sbci	r25, 0x00	; 0
     e4e:	e1 f7       	brne	.-8      	; 0xe48 <startGame+0x58>
     e50:	00 c0       	rjmp	.+0      	; 0xe52 <startGame+0x62>
     e52:	00 c0       	rjmp	.+0      	; 0xe54 <startGame+0x64>
     e54:	df 91       	pop	r29
     e56:	cf 91       	pop	r28
     e58:	08 95       	ret

00000e5a <MENU_addMenuItem>:
     e5a:	cf 92       	push	r12
     e5c:	df 92       	push	r13
     e5e:	ef 92       	push	r14
     e60:	ff 92       	push	r15
	_delay_ms(3000);
}
     e62:	0f 93       	push	r16
     e64:	1f 93       	push	r17
     e66:	cf 93       	push	r28
	MENU_addMenuItem("hard", difficultyMenu, NULL, 0);
	difficultyMenu->children[2] = currItem;
}

void MENU_addMenuItem(char* name, menuNode_t* parentMenu, menuNode_t* childMenu, int hasChildMenu)
{
     e68:	df 93       	push	r29
     e6a:	8c 01       	movw	r16, r24
     e6c:	7b 01       	movw	r14, r22
     e6e:	6a 01       	movw	r12, r20
     e70:	e9 01       	movw	r28, r18
	if(currItem != NULL)
     e72:	80 91 73 02 	lds	r24, 0x0273
     e76:	90 91 74 02 	lds	r25, 0x0274
     e7a:	89 2b       	or	r24, r25
     e7c:	19 f0       	breq	.+6      	; 0xe84 <MENU_addMenuItem+0x2a>
	{
		printf("Creating next item...\n");
     e7e:	87 ec       	ldi	r24, 0xC7	; 199
     e80:	91 e0       	ldi	r25, 0x01	; 1
     e82:	76 d6       	rcall	.+3308   	; 0x1b70 <puts>
     e84:	8c e0       	ldi	r24, 0x0C	; 12
		currItem = currItem->next;
	}

	currItem = malloc(sizeof(menuItemNode_t)); //first element in this menu
     e86:	90 e0       	ldi	r25, 0x00	; 0
     e88:	ec d4       	rcall	.+2520   	; 0x1862 <malloc>
     e8a:	fc 01       	movw	r30, r24
     e8c:	90 93 74 02 	sts	0x0274, r25
     e90:	80 93 73 02 	sts	0x0273, r24
     e94:	f3 82       	std	Z+3, r15	; 0x03
     e96:	e2 82       	std	Z+2, r14	; 0x02
	currItem->parentMenu = parentMenu;
     e98:	11 83       	std	Z+1, r17	; 0x01
     e9a:	00 83       	st	Z, r16
	currItem->name = name;
     e9c:	cd 2b       	or	r28, r29
     e9e:	39 f0       	breq	.+14     	; 0xeae <MENU_addMenuItem+0x54>
	
	if(hasChildMenu)
     ea0:	d5 82       	std	Z+5, r13	; 0x05
     ea2:	c4 82       	std	Z+4, r12	; 0x04
	{
		currItem->childMenu = childMenu;
     ea4:	81 e0       	ldi	r24, 0x01	; 1
     ea6:	90 e0       	ldi	r25, 0x00	; 0
		currItem->hasChildMenu = 1;
     ea8:	97 83       	std	Z+7, r25	; 0x07
     eaa:	86 83       	std	Z+6, r24	; 0x06
     eac:	04 c0       	rjmp	.+8      	; 0xeb6 <MENU_addMenuItem+0x5c>
     eae:	15 82       	std	Z+5, r1	; 0x05
     eb0:	14 82       	std	Z+4, r1	; 0x04
	}
	else
	{
		currItem->childMenu = NULL;
     eb2:	17 82       	std	Z+7, r1	; 0x07
     eb4:	16 82       	std	Z+6, r1	; 0x06
		currItem->hasChildMenu = 0;
     eb6:	df 91       	pop	r29
     eb8:	cf 91       	pop	r28
	}
}
     eba:	1f 91       	pop	r17
     ebc:	0f 91       	pop	r16
     ebe:	ff 90       	pop	r15
     ec0:	ef 90       	pop	r14
     ec2:	df 90       	pop	r13
     ec4:	cf 90       	pop	r12
     ec6:	08 95       	ret

00000ec8 <MENU_buildMenus>:
     ec8:	cf 93       	push	r28
     eca:	df 93       	push	r29
}

void MENU_buildMenus()
{
	//create main menu
	mainMenu = malloc(sizeof(menuNode_t));
     ecc:	86 e1       	ldi	r24, 0x16	; 22
     ece:	90 e0       	ldi	r25, 0x00	; 0
     ed0:	c8 d4       	rcall	.+2448   	; 0x1862 <malloc>
     ed2:	ec 01       	movw	r28, r24
     ed4:	90 93 7a 02 	sts	0x027A, r25
     ed8:	80 93 79 02 	sts	0x0279, r24
     edc:	8d ed       	ldi	r24, 0xDD	; 221
	mainMenu->menuName = "MainMenu";
     ede:	91 e0       	ldi	r25, 0x01	; 1
     ee0:	99 83       	std	Y+1, r25	; 0x01
     ee2:	88 83       	st	Y, r24
     ee4:	1d 8a       	std	Y+21, r1	; 0x15
	mainMenu->parentMenu = NULL;
     ee6:	1c 8a       	std	Y+20, r1	; 0x14
     ee8:	85 e0       	ldi	r24, 0x05	; 5
	mainMenu->noChilds = 5;
     eea:	90 e0       	ldi	r25, 0x00	; 0
     eec:	9b 83       	std	Y+3, r25	; 0x03
     eee:	8a 83       	std	Y+2, r24	; 0x02
     ef0:	86 e1       	ldi	r24, 0x16	; 22
	
	//create DifficultyMenu
	difficultyMenu = malloc(sizeof(menuNode_t));
     ef2:	90 e0       	ldi	r25, 0x00	; 0
     ef4:	b6 d4       	rcall	.+2412   	; 0x1862 <malloc>
     ef6:	fc 01       	movw	r30, r24
     ef8:	90 93 78 02 	sts	0x0278, r25
     efc:	80 93 77 02 	sts	0x0277, r24
     f00:	86 ee       	ldi	r24, 0xE6	; 230
     f02:	91 e0       	ldi	r25, 0x01	; 1
	difficultyMenu->menuName = "DifficultyMenu";
     f04:	91 83       	std	Z+1, r25	; 0x01
     f06:	80 83       	st	Z, r24
     f08:	d5 8b       	std	Z+21, r29	; 0x15
     f0a:	c4 8b       	std	Z+20, r28	; 0x14
	difficultyMenu->parentMenu = mainMenu;
     f0c:	83 e0       	ldi	r24, 0x03	; 3
     f0e:	90 e0       	ldi	r25, 0x00	; 0
	difficultyMenu->noChilds = 3;
     f10:	93 83       	std	Z+3, r25	; 0x03
     f12:	82 83       	std	Z+2, r24	; 0x02
     f14:	20 e0       	ldi	r18, 0x00	; 0
     f16:	30 e0       	ldi	r19, 0x00	; 0
	
	//create menu items for created menus
	MENU_addMenuItem("New Game", mainMenu, NULL, 0);
     f18:	40 e0       	ldi	r20, 0x00	; 0
     f1a:	50 e0       	ldi	r21, 0x00	; 0
     f1c:	be 01       	movw	r22, r28
     f1e:	85 ef       	ldi	r24, 0xF5	; 245
     f20:	91 e0       	ldi	r25, 0x01	; 1
     f22:	9b df       	rcall	.-202    	; 0xe5a <MENU_addMenuItem>
     f24:	60 91 79 02 	lds	r22, 0x0279
     f28:	70 91 7a 02 	lds	r23, 0x027A
	mainMenu->children[0] = currItem;
     f2c:	e0 91 73 02 	lds	r30, 0x0273
     f30:	f0 91 74 02 	lds	r31, 0x0274
     f34:	db 01       	movw	r26, r22
     f36:	15 96       	adiw	r26, 0x05	; 5
     f38:	fc 93       	st	X, r31
     f3a:	ee 93       	st	-X, r30
     f3c:	14 97       	sbiw	r26, 0x04	; 4
     f3e:	88 ef       	ldi	r24, 0xF8	; 248
     f40:	96 e0       	ldi	r25, 0x06	; 6
     f42:	93 87       	std	Z+11, r25	; 0x0b
	mainMenu->children[0]->functionPtr = &startGame;
     f44:	82 87       	std	Z+10, r24	; 0x0a
     f46:	40 91 77 02 	lds	r20, 0x0277
     f4a:	50 91 78 02 	lds	r21, 0x0278
	
	MENU_addMenuItem("Difficulty", mainMenu, difficultyMenu, 1);
     f4e:	21 e0       	ldi	r18, 0x01	; 1
     f50:	30 e0       	ldi	r19, 0x00	; 0
     f52:	8e ef       	ldi	r24, 0xFE	; 254
     f54:	91 e0       	ldi	r25, 0x01	; 1
     f56:	81 df       	rcall	.-254    	; 0xe5a <MENU_addMenuItem>
     f58:	60 91 79 02 	lds	r22, 0x0279
     f5c:	70 91 7a 02 	lds	r23, 0x027A
	mainMenu->children[1] = currItem;
     f60:	80 91 73 02 	lds	r24, 0x0273
     f64:	90 91 74 02 	lds	r25, 0x0274
     f68:	fb 01       	movw	r30, r22
     f6a:	97 83       	std	Z+7, r25	; 0x07
     f6c:	86 83       	std	Z+6, r24	; 0x06
     f6e:	20 e0       	ldi	r18, 0x00	; 0
     f70:	30 e0       	ldi	r19, 0x00	; 0
     f72:	40 e0       	ldi	r20, 0x00	; 0
     f74:	50 e0       	ldi	r21, 0x00	; 0
	
	MENU_addMenuItem("Highscores", mainMenu, NULL, 0);
     f76:	89 e0       	ldi	r24, 0x09	; 9
     f78:	92 e0       	ldi	r25, 0x02	; 2
     f7a:	6f df       	rcall	.-290    	; 0xe5a <MENU_addMenuItem>
     f7c:	60 91 79 02 	lds	r22, 0x0279
     f80:	70 91 7a 02 	lds	r23, 0x027A
     f84:	80 91 73 02 	lds	r24, 0x0273
	mainMenu->children[2] = currItem;
     f88:	90 91 74 02 	lds	r25, 0x0274
     f8c:	db 01       	movw	r26, r22
     f8e:	19 96       	adiw	r26, 0x09	; 9
     f90:	9c 93       	st	X, r25
     f92:	8e 93       	st	-X, r24
     f94:	18 97       	sbiw	r26, 0x08	; 8
     f96:	20 e0       	ldi	r18, 0x00	; 0
     f98:	30 e0       	ldi	r19, 0x00	; 0
     f9a:	40 e0       	ldi	r20, 0x00	; 0
     f9c:	50 e0       	ldi	r21, 0x00	; 0
     f9e:	84 e1       	ldi	r24, 0x14	; 20
	
	MENU_addMenuItem("Joy Calib", mainMenu, NULL, 0);
     fa0:	92 e0       	ldi	r25, 0x02	; 2
     fa2:	5b df       	rcall	.-330    	; 0xe5a <MENU_addMenuItem>
     fa4:	60 91 79 02 	lds	r22, 0x0279
     fa8:	70 91 7a 02 	lds	r23, 0x027A
     fac:	e0 91 73 02 	lds	r30, 0x0273
	mainMenu->children[3] = currItem;
     fb0:	f0 91 74 02 	lds	r31, 0x0274
     fb4:	db 01       	movw	r26, r22
     fb6:	1b 96       	adiw	r26, 0x0b	; 11
     fb8:	fc 93       	st	X, r31
     fba:	ee 93       	st	-X, r30
     fbc:	1a 97       	sbiw	r26, 0x0a	; 10
     fbe:	8d ed       	ldi	r24, 0xDD	; 221
     fc0:	94 e0       	ldi	r25, 0x04	; 4
     fc2:	93 87       	std	Z+11, r25	; 0x0b
     fc4:	82 87       	std	Z+10, r24	; 0x0a
     fc6:	20 e0       	ldi	r18, 0x00	; 0
     fc8:	30 e0       	ldi	r19, 0x00	; 0
	mainMenu->children[3]->functionPtr = &JOY_calibrate; //assign function to this item
     fca:	40 e0       	ldi	r20, 0x00	; 0
     fcc:	50 e0       	ldi	r21, 0x00	; 0
     fce:	8e e1       	ldi	r24, 0x1E	; 30
     fd0:	92 e0       	ldi	r25, 0x02	; 2
	
	MENU_addMenuItem("Info", mainMenu, NULL, 0);
     fd2:	43 df       	rcall	.-378    	; 0xe5a <MENU_addMenuItem>
     fd4:	e0 91 79 02 	lds	r30, 0x0279
     fd8:	f0 91 7a 02 	lds	r31, 0x027A
     fdc:	80 91 73 02 	lds	r24, 0x0273
     fe0:	90 91 74 02 	lds	r25, 0x0274
	mainMenu->children[4] = currItem;
     fe4:	95 87       	std	Z+13, r25	; 0x0d
     fe6:	84 87       	std	Z+12, r24	; 0x0c
     fe8:	10 92 74 02 	sts	0x0274, r1
     fec:	10 92 73 02 	sts	0x0273, r1
     ff0:	60 91 77 02 	lds	r22, 0x0277
     ff4:	70 91 78 02 	lds	r23, 0x0278
	
	currItem = NULL;
     ff8:	20 e0       	ldi	r18, 0x00	; 0
     ffa:	30 e0       	ldi	r19, 0x00	; 0
     ffc:	40 e0       	ldi	r20, 0x00	; 0
	
	MENU_addMenuItem("easy", difficultyMenu, NULL, 0);
     ffe:	50 e0       	ldi	r21, 0x00	; 0
    1000:	83 e2       	ldi	r24, 0x23	; 35
    1002:	92 e0       	ldi	r25, 0x02	; 2
    1004:	2a df       	rcall	.-428    	; 0xe5a <MENU_addMenuItem>
    1006:	60 91 77 02 	lds	r22, 0x0277
    100a:	70 91 78 02 	lds	r23, 0x0278
    100e:	80 91 73 02 	lds	r24, 0x0273
    1012:	90 91 74 02 	lds	r25, 0x0274
	difficultyMenu->children[0] = currItem;
    1016:	fb 01       	movw	r30, r22
    1018:	95 83       	std	Z+5, r25	; 0x05
    101a:	84 83       	std	Z+4, r24	; 0x04
    101c:	20 e0       	ldi	r18, 0x00	; 0
    101e:	30 e0       	ldi	r19, 0x00	; 0
    1020:	40 e0       	ldi	r20, 0x00	; 0
    1022:	50 e0       	ldi	r21, 0x00	; 0
    1024:	88 e2       	ldi	r24, 0x28	; 40
    1026:	92 e0       	ldi	r25, 0x02	; 2
    1028:	18 df       	rcall	.-464    	; 0xe5a <MENU_addMenuItem>
    102a:	60 91 77 02 	lds	r22, 0x0277
	
	MENU_addMenuItem("medium", difficultyMenu, NULL, 0);
    102e:	70 91 78 02 	lds	r23, 0x0278
    1032:	80 91 73 02 	lds	r24, 0x0273
    1036:	90 91 74 02 	lds	r25, 0x0274
    103a:	db 01       	movw	r26, r22
	difficultyMenu->children[1] = currItem;
    103c:	17 96       	adiw	r26, 0x07	; 7
    103e:	9c 93       	st	X, r25
    1040:	8e 93       	st	-X, r24
    1042:	16 97       	sbiw	r26, 0x06	; 6
    1044:	20 e0       	ldi	r18, 0x00	; 0
    1046:	30 e0       	ldi	r19, 0x00	; 0
    1048:	40 e0       	ldi	r20, 0x00	; 0
    104a:	50 e0       	ldi	r21, 0x00	; 0
    104c:	8f e2       	ldi	r24, 0x2F	; 47
    104e:	92 e0       	ldi	r25, 0x02	; 2
    1050:	04 df       	rcall	.-504    	; 0xe5a <MENU_addMenuItem>
    1052:	e0 91 77 02 	lds	r30, 0x0277
	
	MENU_addMenuItem("hard", difficultyMenu, NULL, 0);
    1056:	f0 91 78 02 	lds	r31, 0x0278
    105a:	80 91 73 02 	lds	r24, 0x0273
    105e:	90 91 74 02 	lds	r25, 0x0274
    1062:	91 87       	std	Z+9, r25	; 0x09
    1064:	80 87       	std	Z+8, r24	; 0x08
	difficultyMenu->children[2] = currItem;
    1066:	df 91       	pop	r29
    1068:	cf 91       	pop	r28
    106a:	08 95       	ret

0000106c <MENU_printMenuItem>:
    106c:	cf 93       	push	r28
    106e:	df 93       	push	r29
    1070:	ec 01       	movw	r28, r24
    1072:	cb 01       	movw	r24, r22
    1074:	20 97       	sbiw	r28, 0x00	; 0
    1076:	39 f0       	breq	.+14     	; 0x1086 <MENU_printMenuItem+0x1a>
    1078:	6a e0       	ldi	r22, 0x0A	; 10
}
    107a:	70 e0       	ldi	r23, 0x00	; 0
    107c:	de d1       	rcall	.+956    	; 0x143a <OLED_bufferGoto>
    107e:	88 81       	ld	r24, Y
void MENU_printMenuItem(menuItemNode_t* item, int lineNumber)
{
	if(item != NULL)
	{
		OLED_bufferGoto(lineNumber, menuFrameOffset);
		OLED_printString(item->name);
    1080:	99 81       	ldd	r25, Y+1	; 0x01
    1082:	1a d2       	rcall	.+1076   	; 0x14b8 <OLED_printString>
    1084:	07 c0       	rjmp	.+14     	; 0x1094 <MENU_printMenuItem+0x28>
    1086:	84 e3       	ldi	r24, 0x34	; 52
    1088:	92 e0       	ldi	r25, 0x02	; 2
		//printf("%s\n", item->text);
	}
	else
	{
		printf("NULL pointer...");
    108a:	9f 93       	push	r25
    108c:	8f 93       	push	r24
    108e:	5a d5       	rcall	.+2740   	; 0x1b44 <printf>
    1090:	0f 90       	pop	r0
    1092:	0f 90       	pop	r0
    1094:	df 91       	pop	r29
    1096:	cf 91       	pop	r28
    1098:	08 95       	ret

0000109a <MENU_printMenu>:
	}
}
    109a:	cf 92       	push	r12
    109c:	df 92       	push	r13
    109e:	ef 92       	push	r14

void MENU_printMenu(menuNode_t* menu, int noElements)
{
    10a0:	ff 92       	push	r15
    10a2:	0f 93       	push	r16
    10a4:	1f 93       	push	r17
    10a6:	cf 93       	push	r28
    10a8:	df 93       	push	r29
    10aa:	6c 01       	movw	r12, r24
    10ac:	7b 01       	movw	r14, r22
	//clear the OLED display
	OLED_clear();
    10ae:	e1 d0       	rcall	.+450    	; 0x1272 <OLED_clear>
    10b0:	80 e0       	ldi	r24, 0x00	; 0
	//print arrow
	OLED_moveArrow(0);
    10b2:	90 e0       	ldi	r25, 0x00	; 0
    10b4:	88 d2       	rcall	.+1296   	; 0x15c6 <OLED_moveArrow>
    10b6:	1e 14       	cp	r1, r14
    10b8:	1f 04       	cpc	r1, r15
	
	for(int i = 0; i < noElements; i++)
    10ba:	7c f4       	brge	.+30     	; 0x10da <MENU_printMenu+0x40>
    10bc:	86 01       	movw	r16, r12
    10be:	0c 5f       	subi	r16, 0xFC	; 252
    10c0:	1f 4f       	sbci	r17, 0xFF	; 255
    10c2:	c0 e0       	ldi	r28, 0x00	; 0
    10c4:	d0 e0       	ldi	r29, 0x00	; 0
    10c6:	be 01       	movw	r22, r28
    10c8:	f8 01       	movw	r30, r16
	{
		MENU_printMenuItem(menu->children[i], i);
    10ca:	81 91       	ld	r24, Z+
    10cc:	91 91       	ld	r25, Z+
    10ce:	8f 01       	movw	r16, r30
    10d0:	cd df       	rcall	.-102    	; 0x106c <MENU_printMenuItem>
    10d2:	21 96       	adiw	r28, 0x01	; 1
    10d4:	ce 15       	cp	r28, r14
    10d6:	df 05       	cpc	r29, r15
	//clear the OLED display
	OLED_clear();
	//print arrow
	OLED_moveArrow(0);
	
	for(int i = 0; i < noElements; i++)
    10d8:	b1 f7       	brne	.-20     	; 0x10c6 <MENU_printMenu+0x2c>
    10da:	d0 92 76 02 	sts	0x0276, r13
    10de:	c0 92 75 02 	sts	0x0275, r12
	{
		MENU_printMenuItem(menu->children[i], i);
	}
	
	//currentMenu points to currently printed menu
	currentMenu = menu;
    10e2:	10 92 71 02 	sts	0x0271, r1
    10e6:	10 92 70 02 	sts	0x0270, r1
	
	currentPosition = 0;
    10ea:	f6 01       	movw	r30, r12
    10ec:	84 81       	ldd	r24, Z+4	; 0x04
    10ee:	95 81       	ldd	r25, Z+5	; 0x05
	currItem = currentMenu->children[currentPosition];
    10f0:	90 93 74 02 	sts	0x0274, r25
    10f4:	80 93 73 02 	sts	0x0273, r24
    10f8:	df 91       	pop	r29
    10fa:	cf 91       	pop	r28
    10fc:	1f 91       	pop	r17
}
    10fe:	0f 91       	pop	r16
    1100:	ff 90       	pop	r15
    1102:	ef 90       	pop	r14
    1104:	df 90       	pop	r13
    1106:	cf 90       	pop	r12
    1108:	08 95       	ret

0000110a <MENU_moveUp>:
    110a:	20 91 70 02 	lds	r18, 0x0270
    110e:	30 91 71 02 	lds	r19, 0x0271
	}
}

void MENU_moveUp()
{
	if(currentPosition > 0)
    1112:	12 16       	cp	r1, r18
    1114:	13 06       	cpc	r1, r19
    1116:	bc f4       	brge	.+46     	; 0x1146 <MENU_moveUp+0x3c>
	{
		currentPosition = currentPosition - 1;
    1118:	c9 01       	movw	r24, r18
    111a:	01 97       	sbiw	r24, 0x01	; 1
    111c:	90 93 71 02 	sts	0x0271, r25
    1120:	80 93 70 02 	sts	0x0270, r24
		currItem = currentMenu->children[currentPosition];
    1124:	e0 91 75 02 	lds	r30, 0x0275
    1128:	f0 91 76 02 	lds	r31, 0x0276
    112c:	2f 5f       	subi	r18, 0xFF	; 255
    112e:	3f 4f       	sbci	r19, 0xFF	; 255
    1130:	22 0f       	add	r18, r18
    1132:	33 1f       	adc	r19, r19
    1134:	e2 0f       	add	r30, r18
    1136:	f3 1f       	adc	r31, r19
    1138:	20 81       	ld	r18, Z
    113a:	31 81       	ldd	r19, Z+1	; 0x01
    113c:	30 93 74 02 	sts	0x0274, r19
    1140:	20 93 73 02 	sts	0x0273, r18
		OLED_moveArrow(currentPosition);
    1144:	40 c2       	rjmp	.+1152   	; 0x15c6 <OLED_moveArrow>
    1146:	08 95       	ret

00001148 <MENU_moveDown>:
    1148:	e0 91 75 02 	lds	r30, 0x0275
	}
}

void MENU_moveDown()
{
	if(currentPosition < currentMenu->noChilds -1)
    114c:	f0 91 76 02 	lds	r31, 0x0276
    1150:	20 91 70 02 	lds	r18, 0x0270
    1154:	30 91 71 02 	lds	r19, 0x0271
    1158:	82 81       	ldd	r24, Z+2	; 0x02
    115a:	93 81       	ldd	r25, Z+3	; 0x03
    115c:	01 97       	sbiw	r24, 0x01	; 1
    115e:	28 17       	cp	r18, r24
    1160:	39 07       	cpc	r19, r25
    1162:	a4 f4       	brge	.+40     	; 0x118c <MENU_moveDown+0x44>
	{
		currentPosition = currentPosition + 1;
    1164:	c9 01       	movw	r24, r18
    1166:	01 96       	adiw	r24, 0x01	; 1
    1168:	90 93 71 02 	sts	0x0271, r25
    116c:	80 93 70 02 	sts	0x0270, r24
		currItem = currentMenu->children[currentPosition];
    1170:	2d 5f       	subi	r18, 0xFD	; 253
    1172:	3f 4f       	sbci	r19, 0xFF	; 255
    1174:	22 0f       	add	r18, r18
    1176:	33 1f       	adc	r19, r19
    1178:	e2 0f       	add	r30, r18
    117a:	f3 1f       	adc	r31, r19
    117c:	20 81       	ld	r18, Z
    117e:	31 81       	ldd	r19, Z+1	; 0x01
    1180:	30 93 74 02 	sts	0x0274, r19
    1184:	20 93 73 02 	sts	0x0273, r18
		OLED_moveArrow(currentPosition);
    1188:	1e c2       	rjmp	.+1084   	; 0x15c6 <OLED_moveArrow>
    118a:	08 95       	ret
    118c:	10 92 71 02 	sts	0x0271, r1
	}
	else
	{
		//go back to first item
		currentPosition = 0;
    1190:	10 92 70 02 	sts	0x0270, r1
    1194:	84 81       	ldd	r24, Z+4	; 0x04
		currItem = currentMenu->children[currentPosition];
    1196:	95 81       	ldd	r25, Z+5	; 0x05
    1198:	90 93 74 02 	sts	0x0274, r25
    119c:	80 93 73 02 	sts	0x0273, r24
    11a0:	80 e0       	ldi	r24, 0x00	; 0
		OLED_moveArrow(currentPosition);
    11a2:	90 e0       	ldi	r25, 0x00	; 0
    11a4:	10 c2       	rjmp	.+1056   	; 0x15c6 <OLED_moveArrow>
    11a6:	08 95       	ret

000011a8 <MENU_moveLeft>:
    11a8:	e0 91 75 02 	lds	r30, 0x0275
	}
}

void MENU_moveLeft()
{
	if(currentMenu->parentMenu != NULL)
    11ac:	f0 91 76 02 	lds	r31, 0x0276
    11b0:	84 89       	ldd	r24, Z+20	; 0x14
    11b2:	95 89       	ldd	r25, Z+21	; 0x15
    11b4:	00 97       	sbiw	r24, 0x00	; 0
    11b6:	21 f0       	breq	.+8      	; 0x11c0 <MENU_moveLeft+0x18>
	{
		MENU_printMenu(currentMenu->parentMenu, currentMenu->parentMenu->noChilds);
    11b8:	fc 01       	movw	r30, r24
    11ba:	62 81       	ldd	r22, Z+2	; 0x02
    11bc:	73 81       	ldd	r23, Z+3	; 0x03
    11be:	6d cf       	rjmp	.-294    	; 0x109a <MENU_printMenu>
    11c0:	08 95       	ret

000011c2 <MENU_reactivate>:
    11c2:	80 91 75 02 	lds	r24, 0x0275
	MENU_waitForInput();
}

void MENU_reactivate()
{
	MENU_printMenu(currentMenu, currentMenu->noChilds);
    11c6:	90 91 76 02 	lds	r25, 0x0276
    11ca:	fc 01       	movw	r30, r24
    11cc:	62 81       	ldd	r22, Z+2	; 0x02
    11ce:	73 81       	ldd	r23, Z+3	; 0x03
    11d0:	64 df       	rcall	.-312    	; 0x109a <MENU_printMenu>
    11d2:	18 c0       	rjmp	.+48     	; 0x1204 <MENU_waitForInput>
	MENU_waitForInput();
    11d4:	08 95       	ret

000011d6 <MENU_moveRight>:
    11d6:	e0 91 73 02 	lds	r30, 0x0273
	}
}

void MENU_moveRight()
{
	if(currItem->hasChildMenu)
    11da:	f0 91 74 02 	lds	r31, 0x0274
    11de:	86 81       	ldd	r24, Z+6	; 0x06
    11e0:	97 81       	ldd	r25, Z+7	; 0x07
    11e2:	89 2b       	or	r24, r25
    11e4:	39 f0       	breq	.+14     	; 0x11f4 <MENU_moveRight+0x1e>
	MENU_printMenu(currItem->childMenu, currItem->childMenu->noChilds);
    11e6:	84 81       	ldd	r24, Z+4	; 0x04
    11e8:	95 81       	ldd	r25, Z+5	; 0x05
    11ea:	fc 01       	movw	r30, r24
    11ec:	62 81       	ldd	r22, Z+2	; 0x02
    11ee:	73 81       	ldd	r23, Z+3	; 0x03
    11f0:	54 cf       	rjmp	.-344    	; 0x109a <MENU_printMenu>
    11f2:	08 95       	ret
    11f4:	02 84       	ldd	r0, Z+10	; 0x0a
	
	else if(currItem->functionPtr)
    11f6:	f3 85       	ldd	r31, Z+11	; 0x0b
    11f8:	e0 2d       	mov	r30, r0
    11fa:	30 97       	sbiw	r30, 0x00	; 0
    11fc:	11 f0       	breq	.+4      	; 0x1202 <MENU_moveRight+0x2c>
    11fe:	09 95       	icall
	{
		currItem->functionPtr();
    1200:	e0 cf       	rjmp	.-64     	; 0x11c2 <MENU_reactivate>
		MENU_reactivate();
    1202:	08 95       	ret

00001204 <MENU_waitForInput>:
    1204:	80 91 70 02 	lds	r24, 0x0270
	currItem = currentMenu->children[currentPosition];
}

void MENU_waitForInput()
{
	OLED_moveArrow(currentPosition);
    1208:	90 91 71 02 	lds	r25, 0x0271
    120c:	dc d1       	rcall	.+952    	; 0x15c6 <OLED_moveArrow>
    120e:	80 91 72 02 	lds	r24, 0x0272
	JOY_direction_t currDir;
	
	while(menuActiveFlag)
    1212:	88 23       	and	r24, r24
    1214:	f9 f0       	breq	.+62     	; 0x1254 <MENU_waitForInput+0x50>
    1216:	75 dd       	rcall	.-1302   	; 0xd02 <JOY_getDirection>
	{
		currDir = JOY_getDirection();
    1218:	82 30       	cpi	r24, 0x02	; 2
    121a:	71 f0       	breq	.+28     	; 0x1238 <MENU_waitForInput+0x34>
		switch(currDir){
    121c:	18 f4       	brcc	.+6      	; 0x1224 <MENU_waitForInput+0x20>
    121e:	81 30       	cpi	r24, 0x01	; 1
    1220:	49 f0       	breq	.+18     	; 0x1234 <MENU_waitForInput+0x30>
    1222:	0b c0       	rjmp	.+22     	; 0x123a <MENU_waitForInput+0x36>
    1224:	83 30       	cpi	r24, 0x03	; 3
    1226:	21 f0       	breq	.+8      	; 0x1230 <MENU_waitForInput+0x2c>
    1228:	84 30       	cpi	r24, 0x04	; 4
    122a:	39 f4       	brne	.+14     	; 0x123a <MENU_waitForInput+0x36>
    122c:	bd df       	rcall	.-134    	; 0x11a8 <MENU_moveLeft>
    122e:	05 c0       	rjmp	.+10     	; 0x123a <MENU_waitForInput+0x36>
			case LEFT:
			MENU_moveLeft();
    1230:	d2 df       	rcall	.-92     	; 0x11d6 <MENU_moveRight>
    1232:	03 c0       	rjmp	.+6      	; 0x123a <MENU_waitForInput+0x36>
			break;
    1234:	6a df       	rcall	.-300    	; 0x110a <MENU_moveUp>
			
			case RIGHT:
			MENU_moveRight();
    1236:	01 c0       	rjmp	.+2      	; 0x123a <MENU_waitForInput+0x36>
    1238:	87 df       	rcall	.-242    	; 0x1148 <MENU_moveDown>
			break;
    123a:	2f ef       	ldi	r18, 0xFF	; 255
			
			case UP:
			MENU_moveUp();
    123c:	8f e7       	ldi	r24, 0x7F	; 127
    123e:	94 e0       	ldi	r25, 0x04	; 4
			break;
    1240:	21 50       	subi	r18, 0x01	; 1
			
			case DOWN:
			MENU_moveDown();
    1242:	80 40       	sbci	r24, 0x00	; 0
    1244:	90 40       	sbci	r25, 0x00	; 0
    1246:	e1 f7       	brne	.-8      	; 0x1240 <MENU_waitForInput+0x3c>
    1248:	00 c0       	rjmp	.+0      	; 0x124a <MENU_waitForInput+0x46>
    124a:	00 00       	nop
    124c:	80 91 72 02 	lds	r24, 0x0272
    1250:	81 11       	cpse	r24, r1
    1252:	e1 cf       	rjmp	.-62     	; 0x1216 <MENU_waitForInput+0x12>
    1254:	08 95       	ret

00001256 <MENU_activate>:
    1256:	81 e0       	ldi	r24, 0x01	; 1
void MENU_waitForInput()
{
	OLED_moveArrow(currentPosition);
	JOY_direction_t currDir;
	
	while(menuActiveFlag)
    1258:	80 93 72 02 	sts	0x0272, r24
    125c:	35 de       	rcall	.-918    	; 0xec8 <MENU_buildMenus>
    125e:	80 91 79 02 	lds	r24, 0x0279
void MENU_activate()
{
	menuActiveFlag = 1;
	//mainMenu = malloc(sizeof(menuItemNode_t));
	MENU_buildMenus();
	MENU_printMenu(mainMenu, mainMenu->noChilds);
    1262:	90 91 7a 02 	lds	r25, 0x027A
    1266:	fc 01       	movw	r30, r24
    1268:	62 81       	ldd	r22, Z+2	; 0x02
    126a:	73 81       	ldd	r23, Z+3	; 0x03
    126c:	16 df       	rcall	.-468    	; 0x109a <MENU_printMenu>
    126e:	ca cf       	rjmp	.-108    	; 0x1204 <MENU_waitForInput>
    1270:	08 95       	ret

00001272 <OLED_clear>:
// This function clears the whole screen by setting the whole OLED RAM to zero.

void OLED_clear(void)
{
	// clear OLED buffer
	for(uint16_t i = 0; i < oled_buffer_size; i++)
    1272:	80 91 10 01 	lds	r24, 0x0110
    1276:	90 91 11 01 	lds	r25, 0x0111
    127a:	89 2b       	or	r24, r25
    127c:	89 f0       	breq	.+34     	; 0x12a0 <OLED_clear+0x2e>
    127e:	80 e0       	ldi	r24, 0x00	; 0
    1280:	90 e0       	ldi	r25, 0x00	; 0
	{
		oled_buffer[i] = 0x00;
    1282:	e0 91 12 01 	lds	r30, 0x0112
    1286:	f0 91 13 01 	lds	r31, 0x0113
    128a:	e8 0f       	add	r30, r24
    128c:	f9 1f       	adc	r31, r25
    128e:	10 82       	st	Z, r1
// This function clears the whole screen by setting the whole OLED RAM to zero.

void OLED_clear(void)
{
	// clear OLED buffer
	for(uint16_t i = 0; i < oled_buffer_size; i++)
    1290:	01 96       	adiw	r24, 0x01	; 1
    1292:	20 91 10 01 	lds	r18, 0x0110
    1296:	30 91 11 01 	lds	r19, 0x0111
    129a:	82 17       	cp	r24, r18
    129c:	93 07       	cpc	r25, r19
    129e:	88 f3       	brcs	.-30     	; 0x1282 <OLED_clear+0x10>
    12a0:	08 95       	ret

000012a2 <OLED_init>:

//------------------------------------------------------------------------------
// Default initialization routine of the OLED display.

void OLED_init(void)
{
    12a2:	cf 93       	push	r28
	OLED_writeByteToOLED(oled_cmd, 0xae); // Display off
    12a4:	e0 91 16 01 	lds	r30, 0x0116
    12a8:	f0 91 17 01 	lds	r31, 0x0117
//------------------------------------------------------------------------------
// This Function writes the Byte _data to a specified (*_address) position in 
// the OLED RAM.
void OLED_writeByteToOLED(volatile uint8_t *address, uint8_t data)
{
	*address = data;
    12ac:	8e ea       	ldi	r24, 0xAE	; 174
    12ae:	80 83       	st	Z, r24
// Default initialization routine of the OLED display.

void OLED_init(void)
{
	OLED_writeByteToOLED(oled_cmd, 0xae); // Display off
	OLED_writeByteToOLED(oled_cmd, 0xa1); // Segment remap
    12b0:	e0 91 16 01 	lds	r30, 0x0116
    12b4:	f0 91 17 01 	lds	r31, 0x0117
//------------------------------------------------------------------------------
// This Function writes the Byte _data to a specified (*_address) position in 
// the OLED RAM.
void OLED_writeByteToOLED(volatile uint8_t *address, uint8_t data)
{
	*address = data;
    12b8:	81 ea       	ldi	r24, 0xA1	; 161
    12ba:	80 83       	st	Z, r24

void OLED_init(void)
{
	OLED_writeByteToOLED(oled_cmd, 0xae); // Display off
	OLED_writeByteToOLED(oled_cmd, 0xa1); // Segment remap
	OLED_writeByteToOLED(oled_cmd, 0xda); // Common pads hardware: alternative
    12bc:	e0 91 16 01 	lds	r30, 0x0116
    12c0:	f0 91 17 01 	lds	r31, 0x0117
//------------------------------------------------------------------------------
// This Function writes the Byte _data to a specified (*_address) position in 
// the OLED RAM.
void OLED_writeByteToOLED(volatile uint8_t *address, uint8_t data)
{
	*address = data;
    12c4:	8a ed       	ldi	r24, 0xDA	; 218
    12c6:	80 83       	st	Z, r24
void OLED_init(void)
{
	OLED_writeByteToOLED(oled_cmd, 0xae); // Display off
	OLED_writeByteToOLED(oled_cmd, 0xa1); // Segment remap
	OLED_writeByteToOLED(oled_cmd, 0xda); // Common pads hardware: alternative
	OLED_writeByteToOLED(oled_cmd, 0x12);
    12c8:	e0 91 16 01 	lds	r30, 0x0116
    12cc:	f0 91 17 01 	lds	r31, 0x0117
//------------------------------------------------------------------------------
// This Function writes the Byte _data to a specified (*_address) position in 
// the OLED RAM.
void OLED_writeByteToOLED(volatile uint8_t *address, uint8_t data)
{
	*address = data;
    12d0:	82 e1       	ldi	r24, 0x12	; 18
    12d2:	80 83       	st	Z, r24
{
	OLED_writeByteToOLED(oled_cmd, 0xae); // Display off
	OLED_writeByteToOLED(oled_cmd, 0xa1); // Segment remap
	OLED_writeByteToOLED(oled_cmd, 0xda); // Common pads hardware: alternative
	OLED_writeByteToOLED(oled_cmd, 0x12);
	OLED_writeByteToOLED(oled_cmd, 0xc8); // Common output scan direction:com63~com0
    12d4:	e0 91 16 01 	lds	r30, 0x0116
    12d8:	f0 91 17 01 	lds	r31, 0x0117
//------------------------------------------------------------------------------
// This Function writes the Byte _data to a specified (*_address) position in 
// the OLED RAM.
void OLED_writeByteToOLED(volatile uint8_t *address, uint8_t data)
{
	*address = data;
    12dc:	88 ec       	ldi	r24, 0xC8	; 200
    12de:	80 83       	st	Z, r24
	OLED_writeByteToOLED(oled_cmd, 0xae); // Display off
	OLED_writeByteToOLED(oled_cmd, 0xa1); // Segment remap
	OLED_writeByteToOLED(oled_cmd, 0xda); // Common pads hardware: alternative
	OLED_writeByteToOLED(oled_cmd, 0x12);
	OLED_writeByteToOLED(oled_cmd, 0xc8); // Common output scan direction:com63~com0
	OLED_writeByteToOLED(oled_cmd, 0xa8); // Multiplex ration mode:63
    12e0:	e0 91 16 01 	lds	r30, 0x0116
    12e4:	f0 91 17 01 	lds	r31, 0x0117
//------------------------------------------------------------------------------
// This Function writes the Byte _data to a specified (*_address) position in 
// the OLED RAM.
void OLED_writeByteToOLED(volatile uint8_t *address, uint8_t data)
{
	*address = data;
    12e8:	88 ea       	ldi	r24, 0xA8	; 168
    12ea:	80 83       	st	Z, r24
	OLED_writeByteToOLED(oled_cmd, 0xa1); // Segment remap
	OLED_writeByteToOLED(oled_cmd, 0xda); // Common pads hardware: alternative
	OLED_writeByteToOLED(oled_cmd, 0x12);
	OLED_writeByteToOLED(oled_cmd, 0xc8); // Common output scan direction:com63~com0
	OLED_writeByteToOLED(oled_cmd, 0xa8); // Multiplex ration mode:63
	OLED_writeByteToOLED(oled_cmd, 0x3f);
    12ec:	e0 91 16 01 	lds	r30, 0x0116
    12f0:	f0 91 17 01 	lds	r31, 0x0117
//------------------------------------------------------------------------------
// This Function writes the Byte _data to a specified (*_address) position in 
// the OLED RAM.
void OLED_writeByteToOLED(volatile uint8_t *address, uint8_t data)
{
	*address = data;
    12f4:	8f e3       	ldi	r24, 0x3F	; 63
    12f6:	80 83       	st	Z, r24
	OLED_writeByteToOLED(oled_cmd, 0xda); // Common pads hardware: alternative
	OLED_writeByteToOLED(oled_cmd, 0x12);
	OLED_writeByteToOLED(oled_cmd, 0xc8); // Common output scan direction:com63~com0
	OLED_writeByteToOLED(oled_cmd, 0xa8); // Multiplex ration mode:63
	OLED_writeByteToOLED(oled_cmd, 0x3f);
	OLED_writeByteToOLED(oled_cmd, 0xd5); // Display divide ratio/osc. freq. mode
    12f8:	e0 91 16 01 	lds	r30, 0x0116
    12fc:	f0 91 17 01 	lds	r31, 0x0117
//------------------------------------------------------------------------------
// This Function writes the Byte _data to a specified (*_address) position in 
// the OLED RAM.
void OLED_writeByteToOLED(volatile uint8_t *address, uint8_t data)
{
	*address = data;
    1300:	85 ed       	ldi	r24, 0xD5	; 213
    1302:	80 83       	st	Z, r24
	OLED_writeByteToOLED(oled_cmd, 0x12);
	OLED_writeByteToOLED(oled_cmd, 0xc8); // Common output scan direction:com63~com0
	OLED_writeByteToOLED(oled_cmd, 0xa8); // Multiplex ration mode:63
	OLED_writeByteToOLED(oled_cmd, 0x3f);
	OLED_writeByteToOLED(oled_cmd, 0xd5); // Display divide ratio/osc. freq. mode
	OLED_writeByteToOLED(oled_cmd, 0x80); // default value is 0x80
    1304:	e0 91 16 01 	lds	r30, 0x0116
    1308:	f0 91 17 01 	lds	r31, 0x0117
//------------------------------------------------------------------------------
// This Function writes the Byte _data to a specified (*_address) position in 
// the OLED RAM.
void OLED_writeByteToOLED(volatile uint8_t *address, uint8_t data)
{
	*address = data;
    130c:	80 e8       	ldi	r24, 0x80	; 128
    130e:	80 83       	st	Z, r24
	OLED_writeByteToOLED(oled_cmd, 0xc8); // Common output scan direction:com63~com0
	OLED_writeByteToOLED(oled_cmd, 0xa8); // Multiplex ration mode:63
	OLED_writeByteToOLED(oled_cmd, 0x3f);
	OLED_writeByteToOLED(oled_cmd, 0xd5); // Display divide ratio/osc. freq. mode
	OLED_writeByteToOLED(oled_cmd, 0x80); // default value is 0x80
	OLED_writeByteToOLED(oled_cmd, 0x81); // Contrast control
    1310:	e0 91 16 01 	lds	r30, 0x0116
    1314:	f0 91 17 01 	lds	r31, 0x0117
//------------------------------------------------------------------------------
// This Function writes the Byte _data to a specified (*_address) position in 
// the OLED RAM.
void OLED_writeByteToOLED(volatile uint8_t *address, uint8_t data)
{
	*address = data;
    1318:	81 e8       	ldi	r24, 0x81	; 129
    131a:	80 83       	st	Z, r24
	OLED_writeByteToOLED(oled_cmd, 0xa8); // Multiplex ration mode:63
	OLED_writeByteToOLED(oled_cmd, 0x3f);
	OLED_writeByteToOLED(oled_cmd, 0xd5); // Display divide ratio/osc. freq. mode
	OLED_writeByteToOLED(oled_cmd, 0x80); // default value is 0x80
	OLED_writeByteToOLED(oled_cmd, 0x81); // Contrast control
	OLED_writeByteToOLED(oled_cmd, 0x50); // set contrast
    131c:	e0 91 16 01 	lds	r30, 0x0116
    1320:	f0 91 17 01 	lds	r31, 0x0117
//------------------------------------------------------------------------------
// This Function writes the Byte _data to a specified (*_address) position in 
// the OLED RAM.
void OLED_writeByteToOLED(volatile uint8_t *address, uint8_t data)
{
	*address = data;
    1324:	c0 e5       	ldi	r28, 0x50	; 80
    1326:	c0 83       	st	Z, r28
	OLED_writeByteToOLED(oled_cmd, 0x3f);
	OLED_writeByteToOLED(oled_cmd, 0xd5); // Display divide ratio/osc. freq. mode
	OLED_writeByteToOLED(oled_cmd, 0x80); // default value is 0x80
	OLED_writeByteToOLED(oled_cmd, 0x81); // Contrast control
	OLED_writeByteToOLED(oled_cmd, 0x50); // set contrast
	OLED_writeByteToOLED(oled_cmd, 0xd9); // Set pre-charge period
    1328:	e0 91 16 01 	lds	r30, 0x0116
    132c:	f0 91 17 01 	lds	r31, 0x0117
//------------------------------------------------------------------------------
// This Function writes the Byte _data to a specified (*_address) position in 
// the OLED RAM.
void OLED_writeByteToOLED(volatile uint8_t *address, uint8_t data)
{
	*address = data;
    1330:	89 ed       	ldi	r24, 0xD9	; 217
    1332:	80 83       	st	Z, r24
	OLED_writeByteToOLED(oled_cmd, 0xd5); // Display divide ratio/osc. freq. mode
	OLED_writeByteToOLED(oled_cmd, 0x80); // default value is 0x80
	OLED_writeByteToOLED(oled_cmd, 0x81); // Contrast control
	OLED_writeByteToOLED(oled_cmd, 0x50); // set contrast
	OLED_writeByteToOLED(oled_cmd, 0xd9); // Set pre-charge period
	OLED_writeByteToOLED(oled_cmd, 0x21); // command to set column address !! two cmd bytes missing !!
    1334:	e0 91 16 01 	lds	r30, 0x0116
    1338:	f0 91 17 01 	lds	r31, 0x0117
//------------------------------------------------------------------------------
// This Function writes the Byte _data to a specified (*_address) position in 
// the OLED RAM.
void OLED_writeByteToOLED(volatile uint8_t *address, uint8_t data)
{
	*address = data;
    133c:	81 e2       	ldi	r24, 0x21	; 33
    133e:	80 83       	st	Z, r24
	OLED_writeByteToOLED(oled_cmd, 0x80); // default value is 0x80
	OLED_writeByteToOLED(oled_cmd, 0x81); // Contrast control
	OLED_writeByteToOLED(oled_cmd, 0x50); // set contrast
	OLED_writeByteToOLED(oled_cmd, 0xd9); // Set pre-charge period
	OLED_writeByteToOLED(oled_cmd, 0x21); // command to set column address !! two cmd bytes missing !!
	OLED_writeByteToOLED(oled_cmd, 0x20); // Set Memory Addressing Mode
    1340:	e0 91 16 01 	lds	r30, 0x0116
    1344:	f0 91 17 01 	lds	r31, 0x0117
//------------------------------------------------------------------------------
// This Function writes the Byte _data to a specified (*_address) position in 
// the OLED RAM.
void OLED_writeByteToOLED(volatile uint8_t *address, uint8_t data)
{
	*address = data;
    1348:	80 e2       	ldi	r24, 0x20	; 32
    134a:	80 83       	st	Z, r24
	OLED_writeByteToOLED(oled_cmd, 0x81); // Contrast control
	OLED_writeByteToOLED(oled_cmd, 0x50); // set contrast
	OLED_writeByteToOLED(oled_cmd, 0xd9); // Set pre-charge period
	OLED_writeByteToOLED(oled_cmd, 0x21); // command to set column address !! two cmd bytes missing !!
	OLED_writeByteToOLED(oled_cmd, 0x20); // Set Memory Addressing Mode
	OLED_writeByteToOLED(oled_cmd, 0x00); // Page addressing mode (02)
    134c:	e0 91 16 01 	lds	r30, 0x0116
    1350:	f0 91 17 01 	lds	r31, 0x0117
//------------------------------------------------------------------------------
// This Function writes the Byte _data to a specified (*_address) position in 
// the OLED RAM.
void OLED_writeByteToOLED(volatile uint8_t *address, uint8_t data)
{
	*address = data;
    1354:	10 82       	st	Z, r1
	OLED_writeByteToOLED(oled_cmd, 0x50); // set contrast
	OLED_writeByteToOLED(oled_cmd, 0xd9); // Set pre-charge period
	OLED_writeByteToOLED(oled_cmd, 0x21); // command to set column address !! two cmd bytes missing !!
	OLED_writeByteToOLED(oled_cmd, 0x20); // Set Memory Addressing Mode
	OLED_writeByteToOLED(oled_cmd, 0x00); // Page addressing mode (02)
	OLED_writeByteToOLED(oled_cmd, 0xdb); // VCOM deselect level mode
    1356:	e0 91 16 01 	lds	r30, 0x0116
    135a:	f0 91 17 01 	lds	r31, 0x0117
//------------------------------------------------------------------------------
// This Function writes the Byte _data to a specified (*_address) position in 
// the OLED RAM.
void OLED_writeByteToOLED(volatile uint8_t *address, uint8_t data)
{
	*address = data;
    135e:	8b ed       	ldi	r24, 0xDB	; 219
    1360:	80 83       	st	Z, r24
	OLED_writeByteToOLED(oled_cmd, 0xd9); // Set pre-charge period
	OLED_writeByteToOLED(oled_cmd, 0x21); // command to set column address !! two cmd bytes missing !!
	OLED_writeByteToOLED(oled_cmd, 0x20); // Set Memory Addressing Mode
	OLED_writeByteToOLED(oled_cmd, 0x00); // Page addressing mode (02)
	OLED_writeByteToOLED(oled_cmd, 0xdb); // VCOM deselect level mode
	OLED_writeByteToOLED(oled_cmd, 0x30);
    1362:	e0 91 16 01 	lds	r30, 0x0116
    1366:	f0 91 17 01 	lds	r31, 0x0117
//------------------------------------------------------------------------------
// This Function writes the Byte _data to a specified (*_address) position in 
// the OLED RAM.
void OLED_writeByteToOLED(volatile uint8_t *address, uint8_t data)
{
	*address = data;
    136a:	80 e3       	ldi	r24, 0x30	; 48
    136c:	80 83       	st	Z, r24
	OLED_writeByteToOLED(oled_cmd, 0x21); // command to set column address !! two cmd bytes missing !!
	OLED_writeByteToOLED(oled_cmd, 0x20); // Set Memory Addressing Mode
	OLED_writeByteToOLED(oled_cmd, 0x00); // Page addressing mode (02)
	OLED_writeByteToOLED(oled_cmd, 0xdb); // VCOM deselect level mode
	OLED_writeByteToOLED(oled_cmd, 0x30);
	OLED_writeByteToOLED(oled_cmd, 0xad); // Master configuration
    136e:	e0 91 16 01 	lds	r30, 0x0116
    1372:	f0 91 17 01 	lds	r31, 0x0117
//------------------------------------------------------------------------------
// This Function writes the Byte _data to a specified (*_address) position in 
// the OLED RAM.
void OLED_writeByteToOLED(volatile uint8_t *address, uint8_t data)
{
	*address = data;
    1376:	8d ea       	ldi	r24, 0xAD	; 173
    1378:	80 83       	st	Z, r24
	OLED_writeByteToOLED(oled_cmd, 0x20); // Set Memory Addressing Mode
	OLED_writeByteToOLED(oled_cmd, 0x00); // Page addressing mode (02)
	OLED_writeByteToOLED(oled_cmd, 0xdb); // VCOM deselect level mode
	OLED_writeByteToOLED(oled_cmd, 0x30);
	OLED_writeByteToOLED(oled_cmd, 0xad); // Master configuration
	OLED_writeByteToOLED(oled_cmd, 0x00);
    137a:	e0 91 16 01 	lds	r30, 0x0116
    137e:	f0 91 17 01 	lds	r31, 0x0117
//------------------------------------------------------------------------------
// This Function writes the Byte _data to a specified (*_address) position in 
// the OLED RAM.
void OLED_writeByteToOLED(volatile uint8_t *address, uint8_t data)
{
	*address = data;
    1382:	10 82       	st	Z, r1
	OLED_writeByteToOLED(oled_cmd, 0x00); // Page addressing mode (02)
	OLED_writeByteToOLED(oled_cmd, 0xdb); // VCOM deselect level mode
	OLED_writeByteToOLED(oled_cmd, 0x30);
	OLED_writeByteToOLED(oled_cmd, 0xad); // Master configuration
	OLED_writeByteToOLED(oled_cmd, 0x00);
	OLED_writeByteToOLED(oled_cmd, 0xa4); // Out follows RAM content
    1384:	e0 91 16 01 	lds	r30, 0x0116
    1388:	f0 91 17 01 	lds	r31, 0x0117
//------------------------------------------------------------------------------
// This Function writes the Byte _data to a specified (*_address) position in 
// the OLED RAM.
void OLED_writeByteToOLED(volatile uint8_t *address, uint8_t data)
{
	*address = data;
    138c:	84 ea       	ldi	r24, 0xA4	; 164
    138e:	80 83       	st	Z, r24
	OLED_writeByteToOLED(oled_cmd, 0xdb); // VCOM deselect level mode
	OLED_writeByteToOLED(oled_cmd, 0x30);
	OLED_writeByteToOLED(oled_cmd, 0xad); // Master configuration
	OLED_writeByteToOLED(oled_cmd, 0x00);
	OLED_writeByteToOLED(oled_cmd, 0xa4); // Out follows RAM content
	OLED_writeByteToOLED(oled_cmd, 0xa6); // Set normal display
    1390:	e0 91 16 01 	lds	r30, 0x0116
    1394:	f0 91 17 01 	lds	r31, 0x0117
//------------------------------------------------------------------------------
// This Function writes the Byte _data to a specified (*_address) position in 
// the OLED RAM.
void OLED_writeByteToOLED(volatile uint8_t *address, uint8_t data)
{
	*address = data;
    1398:	86 ea       	ldi	r24, 0xA6	; 166
    139a:	80 83       	st	Z, r24
	OLED_writeByteToOLED(oled_cmd, 0x30);
	OLED_writeByteToOLED(oled_cmd, 0xad); // Master configuration
	OLED_writeByteToOLED(oled_cmd, 0x00);
	OLED_writeByteToOLED(oled_cmd, 0xa4); // Out follows RAM content
	OLED_writeByteToOLED(oled_cmd, 0xa6); // Set normal display
	OLED_writeByteToOLED(oled_cmd, 0xaf); // Display on
    139c:	e0 91 16 01 	lds	r30, 0x0116
    13a0:	f0 91 17 01 	lds	r31, 0x0117
//------------------------------------------------------------------------------
// This Function writes the Byte _data to a specified (*_address) position in 
// the OLED RAM.
void OLED_writeByteToOLED(volatile uint8_t *address, uint8_t data)
{
	*address = data;
    13a4:	8f ea       	ldi	r24, 0xAF	; 175
    13a6:	80 83       	st	Z, r24
	OLED_writeByteToOLED(oled_cmd, 0x00);
	OLED_writeByteToOLED(oled_cmd, 0xa4); // Out follows RAM content
	OLED_writeByteToOLED(oled_cmd, 0xa6); // Set normal display
	OLED_writeByteToOLED(oled_cmd, 0xaf); // Display on
	
	OLED_clear(); // wipe the screen
    13a8:	64 df       	rcall	.-312    	; 0x1272 <OLED_clear>
    13aa:	83 b7       	in	r24, 0x33	; 51
	//OLED_splashScreen();
	//OLED_flyingArrows();
	
	// setup 8-bit counter0 without PWM
	// setting Mode of Operation to CTC and Prescaler to div/1024
	TCCR0 |= (1<<WGM01) | (1<<CS02) | (1<<CS00);
    13ac:	8d 60       	ori	r24, 0x0D	; 13
    13ae:	83 bf       	out	0x33, r24	; 51
    13b0:	89 b7       	in	r24, 0x39	; 57
	// Output Compare Interrupt Enable
	TIMSK |= (1<<OCIE0);
    13b2:	81 60       	ori	r24, 0x01	; 1
    13b4:	89 bf       	out	0x39, r24	; 57
    13b6:	c1 bf       	out	0x31, r28	; 49
	// 17ms Counter cycle (4800Hz -> 80 cycles)
	OCR0 = 80;
    13b8:	cf 91       	pop	r28
	
}
    13ba:	08 95       	ret

000013bc <OLED_goto>:
    13bc:	26 2f       	mov	r18, r22

	// row address
	row = 0xb0 + row; // construction of the page start address

	// column address
	lnib = 0x0f & column; // mask lower nibble from column
    13be:	2f 70       	andi	r18, 0x0F	; 15
	lnib = 0x00 + lnib; // construction of lower column start address

	hnib = column >> 4; // right shift column to get higher nibble
    13c0:	75 95       	asr	r23
    13c2:	67 95       	ror	r22
    13c4:	75 95       	asr	r23
    13c6:	67 95       	ror	r22
    13c8:	75 95       	asr	r23
    13ca:	67 95       	ror	r22
    13cc:	75 95       	asr	r23
    13ce:	67 95       	ror	r22
	hnib = 0x10 + hnib; // construction of higher column start address
    13d0:	60 5f       	subi	r22, 0xF0	; 240
{
	uint8_t lnib = 0;
	uint8_t hnib = 0;

	// row address
	row = 0xb0 + row; // construction of the page start address
    13d2:	80 55       	subi	r24, 0x50	; 80
    13d4:	9f 4f       	sbci	r25, 0xFF	; 255

	hnib = column >> 4; // right shift column to get higher nibble
	hnib = 0x10 + hnib; // construction of higher column start address

	// get to desired page by taking out the orders
	OLED_writeByteToOLED(oled_cmd, row);
    13d6:	e0 91 16 01 	lds	r30, 0x0116
    13da:	f0 91 17 01 	lds	r31, 0x0117
//------------------------------------------------------------------------------
// This Function writes the Byte _data to a specified (*_address) position in 
// the OLED RAM.
void OLED_writeByteToOLED(volatile uint8_t *address, uint8_t data)
{
	*address = data;
    13de:	80 83       	st	Z, r24
	hnib = column >> 4; // right shift column to get higher nibble
	hnib = 0x10 + hnib; // construction of higher column start address

	// get to desired page by taking out the orders
	OLED_writeByteToOLED(oled_cmd, row);
	OLED_writeByteToOLED(oled_cmd, lnib);
    13e0:	e0 91 16 01 	lds	r30, 0x0116
    13e4:	f0 91 17 01 	lds	r31, 0x0117
//------------------------------------------------------------------------------
// This Function writes the Byte _data to a specified (*_address) position in 
// the OLED RAM.
void OLED_writeByteToOLED(volatile uint8_t *address, uint8_t data)
{
	*address = data;
    13e8:	20 83       	st	Z, r18
	hnib = 0x10 + hnib; // construction of higher column start address

	// get to desired page by taking out the orders
	OLED_writeByteToOLED(oled_cmd, row);
	OLED_writeByteToOLED(oled_cmd, lnib);
	OLED_writeByteToOLED(oled_cmd, hnib);
    13ea:	e0 91 16 01 	lds	r30, 0x0116
    13ee:	f0 91 17 01 	lds	r31, 0x0117
//------------------------------------------------------------------------------
// This Function writes the Byte _data to a specified (*_address) position in 
// the OLED RAM.
void OLED_writeByteToOLED(volatile uint8_t *address, uint8_t data)
{
	*address = data;
    13f2:	60 83       	st	Z, r22
    13f4:	08 95       	ret

000013f6 <OLED_updateScreen>:
	// set horizontal addressing mode
// 	OLED_writeByteToOLED(oled_cmd, 0x20); // set memory addressing mode
// 	OLED_writeByteToOLED(oled_cmd, 0x00); // set horizontal addressing mode ~ 0d
// 	
	// write OLED buffer to OLED Memory
	OLED_goto(0,0); // todo: start writing in top left corner (maybe not further needed)
    13f6:	60 e0       	ldi	r22, 0x00	; 0
    13f8:	70 e0       	ldi	r23, 0x00	; 0
    13fa:	80 e0       	ldi	r24, 0x00	; 0
    13fc:	90 e0       	ldi	r25, 0x00	; 0
    13fe:	de df       	rcall	.-68     	; 0x13bc <OLED_goto>
    1400:	80 91 10 01 	lds	r24, 0x0110
	for(uint16_t i = 0; i < oled_buffer_size; i++)
    1404:	90 91 11 01 	lds	r25, 0x0111
    1408:	89 2b       	or	r24, r25
    140a:	b1 f0       	breq	.+44     	; 0x1438 <OLED_updateScreen+0x42>
    140c:	80 e0       	ldi	r24, 0x00	; 0
    140e:	90 e0       	ldi	r25, 0x00	; 0
    1410:	e0 91 12 01 	lds	r30, 0x0112
	{
		OLED_writeByteToOLED(oled_data, oled_buffer[i]);
    1414:	f0 91 13 01 	lds	r31, 0x0113
    1418:	e8 0f       	add	r30, r24
    141a:	f9 1f       	adc	r31, r25
    141c:	20 81       	ld	r18, Z
    141e:	e0 91 14 01 	lds	r30, 0x0114
    1422:	f0 91 15 01 	lds	r31, 0x0115
    1426:	20 83       	st	Z, r18
//------------------------------------------------------------------------------
// This Function writes the Byte _data to a specified (*_address) position in 
// the OLED RAM.
void OLED_writeByteToOLED(volatile uint8_t *address, uint8_t data)
{
	*address = data;
    1428:	01 96       	adiw	r24, 0x01	; 1
// 	OLED_writeByteToOLED(oled_cmd, 0x20); // set memory addressing mode
// 	OLED_writeByteToOLED(oled_cmd, 0x00); // set horizontal addressing mode ~ 0d
// 	
	// write OLED buffer to OLED Memory
	OLED_goto(0,0); // todo: start writing in top left corner (maybe not further needed)
	for(uint16_t i = 0; i < oled_buffer_size; i++)
    142a:	20 91 10 01 	lds	r18, 0x0110
    142e:	30 91 11 01 	lds	r19, 0x0111
    1432:	82 17       	cp	r24, r18
    1434:	93 07       	cpc	r25, r19
    1436:	60 f3       	brcs	.-40     	; 0x1410 <OLED_updateScreen+0x1a>
    1438:	08 95       	ret

0000143a <OLED_bufferGoto>:
    143a:	96 95       	lsr	r25
}

void OLED_bufferGoto(int row, int column)
{
	// change pointer in OLED SRAM buffer
	oled_buffer_position = oled_buffer + (row * 0x80) + column;
    143c:	98 2f       	mov	r25, r24
    143e:	88 27       	eor	r24, r24
    1440:	97 95       	ror	r25
    1442:	87 95       	ror	r24
    1444:	68 0f       	add	r22, r24
    1446:	79 1f       	adc	r23, r25
    1448:	80 91 12 01 	lds	r24, 0x0112
    144c:	90 91 13 01 	lds	r25, 0x0113
    1450:	68 0f       	add	r22, r24
    1452:	79 1f       	adc	r23, r25
    1454:	70 93 0f 01 	sts	0x010F, r23
    1458:	60 93 0e 01 	sts	0x010E, r22
    145c:	08 95       	ret

0000145e <OLED_printCharacter>:
// SPACE (' '). As SPACE corresponds to position 32 in the ASCII table, this 
// number has to be subtracted in order to access the right position in the font
// table.

void OLED_printCharacter(uint8_t character)
{
    145e:	0f 93       	push	r16
    1460:	1f 93       	push	r17
    1462:	cf 93       	push	r28
    1464:	df 93       	push	r29
	character = character-32; // map character to font table
    1466:	80 52       	subi	r24, 0x20	; 32
    1468:	08 2f       	mov	r16, r24
    146a:	10 e0       	ldi	r17, 0x00	; 0
    146c:	00 0f       	add	r16, r16
    146e:	11 1f       	adc	r17, r17
    1470:	00 0f       	add	r16, r16
    1472:	11 1f       	adc	r17, r17
    1474:	00 0f       	add	r16, r16
    1476:	11 1f       	adc	r17, r17
    1478:	c0 e0       	ldi	r28, 0x00	; 0
    147a:	d0 e0       	ldi	r29, 0x00	; 0
    147c:	00 59       	subi	r16, 0x90	; 144
    147e:	1f 4f       	sbci	r17, 0xFF	; 255
    1480:	f8 01       	movw	r30, r16
    1482:	ec 0f       	add	r30, r28
    1484:	fd 1f       	adc	r31, r29
	
	// print 8 columns into OLED Buffer in SRAM
	for(uint8_t i = 0; i < 8; i++)
	{
		saveToAddress(oled_buffer_position, pgm_read_byte(&font8[character][i]));
    1486:	64 91       	lpm	r22, Z
    1488:	70 e0       	ldi	r23, 0x00	; 0
    148a:	80 91 0e 01 	lds	r24, 0x010E
    148e:	90 91 0f 01 	lds	r25, 0x010F
    1492:	7d da       	rcall	.-2822   	; 0x98e <saveToAddress>
    1494:	80 91 0e 01 	lds	r24, 0x010E
		oled_buffer_position++;
    1498:	90 91 0f 01 	lds	r25, 0x010F
    149c:	01 96       	adiw	r24, 0x01	; 1
    149e:	90 93 0f 01 	sts	0x010F, r25
    14a2:	80 93 0e 01 	sts	0x010E, r24
    14a6:	21 96       	adiw	r28, 0x01	; 1
    14a8:	c8 30       	cpi	r28, 0x08	; 8
void OLED_printCharacter(uint8_t character)
{
	character = character-32; // map character to font table
	
	// print 8 columns into OLED Buffer in SRAM
	for(uint8_t i = 0; i < 8; i++)
    14aa:	d1 05       	cpc	r29, r1
    14ac:	49 f7       	brne	.-46     	; 0x1480 <OLED_printCharacter+0x22>
    14ae:	df 91       	pop	r29
	// print 8 columns into OLED RAM
// 	for(uint8_t i = 0; i < 8; i++)
// 	{
// 		OLED_writeByteToOLED(oled_data, pgm_read_byte(&font8[character][i]));
// 	}
}
    14b0:	cf 91       	pop	r28
    14b2:	1f 91       	pop	r17
    14b4:	0f 91       	pop	r16
    14b6:	08 95       	ret

000014b8 <OLED_printString>:
    14b8:	1f 93       	push	r17

//------------------------------------------------------------------------------
// This function allows to print Strings to the OLED display

void OLED_printString(char* msg)
{
    14ba:	cf 93       	push	r28
    14bc:	df 93       	push	r29
    14be:	ec 01       	movw	r28, r24
	for(uint8_t i = 0; i < strlen(msg); i++)
    14c0:	10 e0       	ldi	r17, 0x00	; 0
    14c2:	06 c0       	rjmp	.+12     	; 0x14d0 <OLED_printString+0x18>
	{
		OLED_printCharacter(msg[i]);
    14c4:	fe 01       	movw	r30, r28
    14c6:	e8 0f       	add	r30, r24
    14c8:	f9 1f       	adc	r31, r25
    14ca:	80 81       	ld	r24, Z
    14cc:	c8 df       	rcall	.-112    	; 0x145e <OLED_printCharacter>
    14ce:	1f 5f       	subi	r17, 0xFF	; 255
//------------------------------------------------------------------------------
// This function allows to print Strings to the OLED display

void OLED_printString(char* msg)
{
	for(uint8_t i = 0; i < strlen(msg); i++)
    14d0:	81 2f       	mov	r24, r17
    14d2:	90 e0       	ldi	r25, 0x00	; 0
    14d4:	fe 01       	movw	r30, r28
    14d6:	01 90       	ld	r0, Z+
    14d8:	00 20       	and	r0, r0
    14da:	e9 f7       	brne	.-6      	; 0x14d6 <OLED_printString+0x1e>
    14dc:	31 97       	sbiw	r30, 0x01	; 1
    14de:	ec 1b       	sub	r30, r28
    14e0:	fd 0b       	sbc	r31, r29
    14e2:	8e 17       	cp	r24, r30
    14e4:	9f 07       	cpc	r25, r31
    14e6:	70 f3       	brcs	.-36     	; 0x14c4 <OLED_printString+0xc>
    14e8:	df 91       	pop	r29
	{
		OLED_printCharacter(msg[i]);
	}
}
    14ea:	cf 91       	pop	r28
    14ec:	1f 91       	pop	r17
    14ee:	08 95       	ret

000014f0 <OLED_printArrow>:
    14f0:	68 e1       	ldi	r22, 0x18	; 24
// This function prints an arrow to the OLED display

void OLED_printArrow(void)
{
	// write arrow to oled sram buffer
	saveToAddress(oled_buffer_position, 0b00011000);
    14f2:	70 e0       	ldi	r23, 0x00	; 0
    14f4:	80 91 0e 01 	lds	r24, 0x010E
    14f8:	90 91 0f 01 	lds	r25, 0x010F
    14fc:	48 da       	rcall	.-2928   	; 0x98e <saveToAddress>
    14fe:	80 91 0e 01 	lds	r24, 0x010E
	oled_buffer_position++;
    1502:	90 91 0f 01 	lds	r25, 0x010F
    1506:	01 96       	adiw	r24, 0x01	; 1
    1508:	90 93 0f 01 	sts	0x010F, r25
    150c:	80 93 0e 01 	sts	0x010E, r24
    1510:	68 e1       	ldi	r22, 0x18	; 24
	saveToAddress(oled_buffer_position, 0b00011000);
    1512:	70 e0       	ldi	r23, 0x00	; 0
    1514:	3c da       	rcall	.-2952   	; 0x98e <saveToAddress>
    1516:	80 91 0e 01 	lds	r24, 0x010E
	oled_buffer_position++;
    151a:	90 91 0f 01 	lds	r25, 0x010F
    151e:	01 96       	adiw	r24, 0x01	; 1
    1520:	90 93 0f 01 	sts	0x010F, r25
    1524:	80 93 0e 01 	sts	0x010E, r24
    1528:	6e e7       	ldi	r22, 0x7E	; 126
    152a:	70 e0       	ldi	r23, 0x00	; 0
	saveToAddress(oled_buffer_position, 0b01111110);
    152c:	30 da       	rcall	.-2976   	; 0x98e <saveToAddress>
    152e:	80 91 0e 01 	lds	r24, 0x010E
    1532:	90 91 0f 01 	lds	r25, 0x010F
	oled_buffer_position++;
    1536:	01 96       	adiw	r24, 0x01	; 1
    1538:	90 93 0f 01 	sts	0x010F, r25
    153c:	80 93 0e 01 	sts	0x010E, r24
    1540:	6c e3       	ldi	r22, 0x3C	; 60
    1542:	70 e0       	ldi	r23, 0x00	; 0
    1544:	24 da       	rcall	.-3000   	; 0x98e <saveToAddress>
	saveToAddress(oled_buffer_position, 0b00111100);
    1546:	80 91 0e 01 	lds	r24, 0x010E
    154a:	90 91 0f 01 	lds	r25, 0x010F
	oled_buffer_position++;
    154e:	01 96       	adiw	r24, 0x01	; 1
    1550:	90 93 0f 01 	sts	0x010F, r25
    1554:	80 93 0e 01 	sts	0x010E, r24
    1558:	68 e1       	ldi	r22, 0x18	; 24
    155a:	70 e0       	ldi	r23, 0x00	; 0
    155c:	18 da       	rcall	.-3024   	; 0x98e <saveToAddress>
    155e:	80 91 0e 01 	lds	r24, 0x010E
	saveToAddress(oled_buffer_position, 0b00011000);
    1562:	90 91 0f 01 	lds	r25, 0x010F
    1566:	01 96       	adiw	r24, 0x01	; 1
	oled_buffer_position++;
    1568:	90 93 0f 01 	sts	0x010F, r25
    156c:	80 93 0e 01 	sts	0x010E, r24
    1570:	08 95       	ret

00001572 <OLED_clearArrow>:
    1572:	0f 93       	push	r16
    1574:	1f 93       	push	r17
    1576:	cf 93       	push	r28
    1578:	df 93       	push	r29
    157a:	c1 e0       	ldi	r28, 0x01	; 1
//------------------------------------------------------------------------------
// This function clears the first columns in the size of the arrow from the 
// OLED display

void OLED_clearArrow(void)
{
    157c:	d0 e0       	ldi	r29, 0x00	; 0
	for(uint8_t count_row = 0; count_row < height; count_row++)
    157e:	80 e0       	ldi	r24, 0x00	; 0
    1580:	90 e0       	ldi	r25, 0x00	; 0
	{
		OLED_bufferGoto(count_row,0); // move to first column in row
    1582:	05 e0       	ldi	r16, 0x05	; 5
    1584:	60 e0       	ldi	r22, 0x00	; 0
    1586:	70 e0       	ldi	r23, 0x00	; 0
    1588:	58 df       	rcall	.-336    	; 0x143a <OLED_bufferGoto>
    158a:	10 2f       	mov	r17, r16
    158c:	60 e0       	ldi	r22, 0x00	; 0

		// the inner loop iterates the columns of each row
		for(uint8_t count_column = 0; count_column < ARROW_WIDTH; count_column++)
		{
			saveToAddress(oled_buffer_position, 0x00);
    158e:	70 e0       	ldi	r23, 0x00	; 0
    1590:	80 91 0e 01 	lds	r24, 0x010E
    1594:	90 91 0f 01 	lds	r25, 0x010F
    1598:	fa d9       	rcall	.-3084   	; 0x98e <saveToAddress>
    159a:	80 91 0e 01 	lds	r24, 0x010E
			oled_buffer_position++;
    159e:	90 91 0f 01 	lds	r25, 0x010F
    15a2:	01 96       	adiw	r24, 0x01	; 1
    15a4:	90 93 0f 01 	sts	0x010F, r25
    15a8:	80 93 0e 01 	sts	0x010E, r24
    15ac:	11 50       	subi	r17, 0x01	; 1
    15ae:	71 f7       	brne	.-36     	; 0x158c <OLED_clearArrow+0x1a>
    15b0:	8c 2f       	mov	r24, r28
	for(uint8_t count_row = 0; count_row < height; count_row++)
	{
		OLED_bufferGoto(count_row,0); // move to first column in row

		// the inner loop iterates the columns of each row
		for(uint8_t count_column = 0; count_column < ARROW_WIDTH; count_column++)
    15b2:	9d 2f       	mov	r25, r29
// This function clears the first columns in the size of the arrow from the 
// OLED display

void OLED_clearArrow(void)
{
	for(uint8_t count_row = 0; count_row < height; count_row++)
    15b4:	21 96       	adiw	r28, 0x01	; 1
    15b6:	c9 30       	cpi	r28, 0x09	; 9
    15b8:	d1 05       	cpc	r29, r1
    15ba:	21 f7       	brne	.-56     	; 0x1584 <OLED_clearArrow+0x12>
    15bc:	df 91       	pop	r29
    15be:	cf 91       	pop	r28
// 		for(uint8_t count_column = 0; count_column < arrow_width; count_column++)
// 		{
// 			OLED_writeByteToOLED(oled_data, 0x00);
// 		}
// 	}
}
    15c0:	1f 91       	pop	r17
    15c2:	0f 91       	pop	r16
    15c4:	08 95       	ret

000015c6 <OLED_moveArrow>:
    15c6:	2f 92       	push	r2
    15c8:	3f 92       	push	r3
//------------------------------------------------------------------------------
// This function can be used to remove the arrow from its old row and move
// it to a new one.

void OLED_moveArrow(int joy_counter)
{
    15ca:	4f 92       	push	r4
    15cc:	5f 92       	push	r5
    15ce:	6f 92       	push	r6
    15d0:	7f 92       	push	r7
    15d2:	8f 92       	push	r8
    15d4:	9f 92       	push	r9
    15d6:	af 92       	push	r10
    15d8:	bf 92       	push	r11
    15da:	cf 92       	push	r12
    15dc:	df 92       	push	r13
    15de:	ef 92       	push	r14
    15e0:	ff 92       	push	r15
    15e2:	0f 93       	push	r16
    15e4:	1f 93       	push	r17
    15e6:	cf 93       	push	r28
    15e8:	df 93       	push	r29
    15ea:	cd b7       	in	r28, 0x3d	; 61
    15ec:	de b7       	in	r29, 0x3e	; 62
    15ee:	2a 97       	sbiw	r28, 0x0a	; 10
    15f0:	0f b6       	in	r0, 0x3f	; 63
    15f2:	f8 94       	cli
    15f4:	de bf       	out	0x3e, r29	; 62
    15f6:	0f be       	out	0x3f, r0	; 63
    15f8:	cd bf       	out	0x3d, r28	; 61
	// reset animation tick
	animation_tick = 0;
    15fa:	10 92 7c 02 	sts	0x027C, r1
    15fe:	10 92 7b 02 	sts	0x027B, r1
	// determine moving direction
	uint8_t move_up = 0;
	if(joy_counter == arrow_position)
    1602:	89 2b       	or	r24, r25
    1604:	41 f4       	brne	.+16     	; 0x1616 <OLED_moveArrow+0x50>
	{
		OLED_clearArrow(); // clear the arrow space
    1606:	b5 df       	rcall	.-150    	; 0x1572 <OLED_clearArrow>
    1608:	60 e0       	ldi	r22, 0x00	; 0
		//OLED_goto(joy_counter,0); // move cursor to specified row
		OLED_bufferGoto(joy_counter, 0);
    160a:	70 e0       	ldi	r23, 0x00	; 0
    160c:	80 e0       	ldi	r24, 0x00	; 0
    160e:	90 e0       	ldi	r25, 0x00	; 0
    1610:	14 df       	rcall	.-472    	; 0x143a <OLED_bufferGoto>
    1612:	6e df       	rcall	.-292    	; 0x14f0 <OLED_printArrow>
    1614:	6e c0       	rjmp	.+220    	; 0x16f2 <OLED_moveArrow+0x12c>
		OLED_printArrow(); // print arrow
    1616:	85 e0       	ldi	r24, 0x05	; 5
    1618:	fe 01       	movw	r30, r28
    161a:	36 96       	adiw	r30, 0x06	; 6
	}
	else
	{		
		//printf("%#x %#x %#x %#x %#x \n", readFromAddress(0x1c00), readFromAddress(0x1c01), readFromAddress(0x1c02), readFromAddress(0x1c03), readFromAddress(0x1c04));
		uint8_t buffer_dummy[ARROW_WIDTH] = {0x00};
    161c:	df 01       	movw	r26, r30
    161e:	98 2f       	mov	r25, r24
    1620:	1d 92       	st	X+, r1
    1622:	9a 95       	dec	r25
    1624:	e9 f7       	brne	.-6      	; 0x1620 <OLED_moveArrow+0x5a>
    1626:	35 97       	sbiw	r30, 0x05	; 5
    1628:	df 01       	movw	r26, r30
    162a:	1d 92       	st	X+, r1
		uint8_t buffer_current[ARROW_WIDTH] = {0x00};
    162c:	8a 95       	dec	r24
    162e:	e9 f7       	brne	.-6      	; 0x162a <OLED_moveArrow+0x64>
    1630:	68 94       	set
    1632:	55 24       	eor	r5, r5
    1634:	53 f8       	bld	r5, 3
    1636:	41 2c       	mov	r4, r1
    1638:	31 2c       	mov	r3, r1
    163a:	64 2c       	mov	r6, r4
			
		for(uint8_t h = 0; h < 8; h++)
		{
			for(uint8_t i = 0; i < height; i++)
    163c:	73 2c       	mov	r7, r3
    163e:	53 c0       	rjmp	.+166    	; 0x16e6 <OLED_moveArrow+0x120>
//------------------------------------------------------------------------------
// This function can be used to remove the arrow from its old row and move
// it to a new one.

void OLED_moveArrow(int joy_counter)
{
    1640:	b8 01       	movw	r22, r16
    1642:	88 2d       	mov	r24, r8
    1644:	99 2d       	mov	r25, r9
		{
			for(uint8_t i = 0; i < height; i++)
			{
				for(uint8_t j = 0; j < ARROW_WIDTH; j++)
				{
					OLED_bufferGoto(i, j);
    1646:	f9 de       	rcall	.-526    	; 0x143a <OLED_bufferGoto>
    1648:	80 91 0e 01 	lds	r24, 0x010E
    164c:	90 91 0f 01 	lds	r25, 0x010F
					buffer_current[j] = readFromAddress(oled_buffer_position); // save state of current row
    1650:	9b d9       	rcall	.-3274   	; 0x988 <readFromAddress>
    1652:	f7 01       	movw	r30, r14
    1654:	81 93       	st	Z+, r24
    1656:	7f 01       	movw	r14, r30
    1658:	0f 5f       	subi	r16, 0xFF	; 255
    165a:	1f 4f       	sbci	r17, 0xFF	; 255
    165c:	05 30       	cpi	r16, 0x05	; 5
    165e:	11 05       	cpc	r17, r1
    1660:	79 f7       	brne	.-34     	; 0x1640 <OLED_moveArrow+0x7a>
    1662:	ce 01       	movw	r24, r28
    1664:	06 96       	adiw	r24, 0x06	; 6
			
		for(uint8_t h = 0; h < 8; h++)
		{
			for(uint8_t i = 0; i < height; i++)
			{
				for(uint8_t j = 0; j < ARROW_WIDTH; j++)
    1666:	7c 01       	movw	r14, r24
    1668:	de 01       	movw	r26, r28
    166a:	11 96       	adiw	r26, 0x01	; 1
    166c:	5d 01       	movw	r10, r26
    166e:	06 2d       	mov	r16, r6
    1670:	17 2d       	mov	r17, r7
    1672:	b8 01       	movw	r22, r16
    1674:	88 2d       	mov	r24, r8
    1676:	99 2d       	mov	r25, r9
    1678:	e0 de       	rcall	.-576    	; 0x143a <OLED_bufferGoto>
    167a:	f5 01       	movw	r30, r10
					buffer_current[j] = readFromAddress(oled_buffer_position); // save state of current row
				}
			
				for(uint8_t k = 0; k < ARROW_WIDTH; k++)
				{				
					OLED_bufferGoto(i, k);
    167c:	21 90       	ld	r2, Z+
    167e:	5f 01       	movw	r10, r30
    1680:	d7 01       	movw	r26, r14
    1682:	8c 91       	ld	r24, X
    1684:	88 1f       	adc	r24, r24
					saveToAddress(oled_buffer_position, buffer_current[k]<<1 | buffer_dummy[k]>>7); // move current row 1 down + combine with lowest from above
    1686:	88 27       	eor	r24, r24
    1688:	88 1f       	adc	r24, r24
    168a:	62 2d       	mov	r22, r2
    168c:	70 e0       	ldi	r23, 0x00	; 0
    168e:	66 0f       	add	r22, r22
    1690:	77 1f       	adc	r23, r23
    1692:	68 2b       	or	r22, r24
    1694:	80 91 0e 01 	lds	r24, 0x010E
    1698:	90 91 0f 01 	lds	r25, 0x010F
    169c:	78 d9       	rcall	.-3344   	; 0x98e <saveToAddress>
    169e:	f7 01       	movw	r30, r14
    16a0:	21 92       	st	Z+, r2
    16a2:	7f 01       	movw	r14, r30
    16a4:	0f 5f       	subi	r16, 0xFF	; 255
    16a6:	1f 4f       	sbci	r17, 0xFF	; 255
    16a8:	05 30       	cpi	r16, 0x05	; 5
    16aa:	11 05       	cpc	r17, r1
					buffer_dummy[k] = buffer_current[k]; // current row is reference for next row
    16ac:	11 f7       	brne	.-60     	; 0x1672 <OLED_moveArrow+0xac>
    16ae:	8c 2c       	mov	r8, r12
    16b0:	9d 2c       	mov	r9, r13
    16b2:	ff ef       	ldi	r31, 0xFF	; 255
    16b4:	cf 1a       	sub	r12, r31
				{
					OLED_bufferGoto(i, j);
					buffer_current[j] = readFromAddress(oled_buffer_position); // save state of current row
				}
			
				for(uint8_t k = 0; k < ARROW_WIDTH; k++)
    16b6:	df 0a       	sbc	r13, r31
    16b8:	89 e0       	ldi	r24, 0x09	; 9
    16ba:	c8 16       	cp	r12, r24
		uint8_t buffer_dummy[ARROW_WIDTH] = {0x00};
		uint8_t buffer_current[ARROW_WIDTH] = {0x00};
			
		for(uint8_t h = 0; h < 8; h++)
		{
			for(uint8_t i = 0; i < height; i++)
    16bc:	d1 04       	cpc	r13, r1
    16be:	31 f0       	breq	.+12     	; 0x16cc <OLED_moveArrow+0x106>
    16c0:	de 01       	movw	r26, r28
    16c2:	11 96       	adiw	r26, 0x01	; 1
    16c4:	7d 01       	movw	r14, r26
    16c6:	06 2d       	mov	r16, r6
    16c8:	17 2d       	mov	r17, r7
    16ca:	ba cf       	rjmp	.-140    	; 0x1640 <OLED_moveArrow+0x7a>
    16cc:	80 91 7b 02 	lds	r24, 0x027B
//------------------------------------------------------------------------------
// This function can be used to remove the arrow from its old row and move
// it to a new one.

void OLED_moveArrow(int joy_counter)
{
    16d0:	90 91 7c 02 	lds	r25, 0x027C
    16d4:	01 97       	sbiw	r24, 0x01	; 1
    16d6:	09 f0       	breq	.+2      	; 0x16da <OLED_moveArrow+0x114>
    16d8:	ff cf       	rjmp	.-2      	; 0x16d8 <OLED_moveArrow+0x112>
					buffer_dummy[k] = buffer_current[k]; // current row is reference for next row
				}
			}
			
			//while(animation_tick != 1){_delay_us(1);};
			while(animation_tick != 1);
    16da:	40 92 7b 02 	sts	0x027B, r4
    16de:	30 92 7c 02 	sts	0x027C, r3
    16e2:	5a 94       	dec	r5
    16e4:	31 f0       	breq	.+12     	; 0x16f2 <OLED_moveArrow+0x12c>
    16e6:	cc 24       	eor	r12, r12
			animation_tick = 0;
    16e8:	c3 94       	inc	r12
    16ea:	d1 2c       	mov	r13, r1
    16ec:	84 2c       	mov	r8, r4
    16ee:	93 2c       	mov	r9, r3
    16f0:	e7 cf       	rjmp	.-50     	; 0x16c0 <OLED_moveArrow+0xfa>
	{		
		//printf("%#x %#x %#x %#x %#x \n", readFromAddress(0x1c00), readFromAddress(0x1c01), readFromAddress(0x1c02), readFromAddress(0x1c03), readFromAddress(0x1c04));
		uint8_t buffer_dummy[ARROW_WIDTH] = {0x00};
		uint8_t buffer_current[ARROW_WIDTH] = {0x00};
			
		for(uint8_t h = 0; h < 8; h++)
    16f2:	2a 96       	adiw	r28, 0x0a	; 10
		{
			for(uint8_t i = 0; i < height; i++)
			{
				for(uint8_t j = 0; j < ARROW_WIDTH; j++)
    16f4:	0f b6       	in	r0, 0x3f	; 63
    16f6:	f8 94       	cli
    16f8:	de bf       	out	0x3e, r29	; 62
		uint8_t buffer_dummy[ARROW_WIDTH] = {0x00};
		uint8_t buffer_current[ARROW_WIDTH] = {0x00};
			
		for(uint8_t h = 0; h < 8; h++)
		{
			for(uint8_t i = 0; i < height; i++)
    16fa:	0f be       	out	0x3f, r0	; 63
    16fc:	cd bf       	out	0x3d, r28	; 61
    16fe:	df 91       	pop	r29
			while(animation_tick != 1);
			animation_tick = 0;
		}
	}
	
}
    1700:	cf 91       	pop	r28
    1702:	1f 91       	pop	r17
    1704:	0f 91       	pop	r16
    1706:	ff 90       	pop	r15
    1708:	ef 90       	pop	r14
    170a:	df 90       	pop	r13
    170c:	cf 90       	pop	r12
    170e:	bf 90       	pop	r11
    1710:	af 90       	pop	r10
    1712:	9f 90       	pop	r9
    1714:	8f 90       	pop	r8
    1716:	7f 90       	pop	r7
    1718:	6f 90       	pop	r6
    171a:	5f 90       	pop	r5
    171c:	4f 90       	pop	r4
    171e:	3f 90       	pop	r3
    1720:	2f 90       	pop	r2
    1722:	08 95       	ret

00001724 <OLED_setAnimationTick>:
    1724:	81 e0       	ldi	r24, 0x01	; 1
    1726:	90 e0       	ldi	r25, 0x00	; 0
    1728:	90 93 7c 02 	sts	0x027C, r25
    172c:	80 93 7b 02 	sts	0x027B, r24
    1730:	08 95       	ret

00001732 <SLI_init>:
SLI_position_t currentSliPosition;

// set initial values for Position and Buttons
void SLI_init()
{
	currentSliPosition.R_abs = 0;
    1732:	10 92 7f 02 	sts	0x027F, r1
	currentSliPosition.L_abs = 0;
    1736:	10 92 80 02 	sts	0x0280, r1
	currentSliPosition.R_per = 0;
    173a:	10 92 81 02 	sts	0x0281, r1
	currentSliPosition.L_per = 0;
    173e:	10 92 82 02 	sts	0x0282, r1
    1742:	08 95       	ret

00001744 <SPI_init>:

void SPI_init()
{
	//init external interrupt INT2 on falling edge
	#if defined(__AVR_ATmega162__)
		set_bit(GICR, INT2);
    1744:	8b b7       	in	r24, 0x3b	; 59
    1746:	80 62       	ori	r24, 0x20	; 32
    1748:	8b bf       	out	0x3b, r24	; 59
		clear_bit(EMCUCR, ISC2);
    174a:	86 b7       	in	r24, 0x36	; 54
    174c:	8e 7f       	andi	r24, 0xFE	; 254
    174e:	86 bf       	out	0x36, r24	; 54
		
		// Set _SS, MOSI and SCK output, all others input
		DDR_SPI |= (1<<SS_CAN_CONTROLLER_PIN_MODE) | (1<<MOSI_PIN) | (1<<SCK_PIN);
    1750:	87 b3       	in	r24, 0x17	; 23
    1752:	80 6b       	ori	r24, 0xB0	; 176
    1754:	87 bb       	out	0x17, r24	; 23
	#endif
	
	

	// Enable SPI, Master, set clock rate fck/4
	SPCR = (1<<SPE) | (1<<MSTR);
    1756:	80 e5       	ldi	r24, 0x50	; 80
    1758:	8d b9       	out	0x0d, r24	; 13
	
	// clock rate fck/2
	SPSR = (1<<SPI2X);
    175a:	81 e0       	ldi	r24, 0x01	; 1
    175c:	8e b9       	out	0x0e, r24	; 14

	// set SS_CAN_CONTROLLER high for default (slave not selected)
	set_bit(PORT_SPI, SS_CAN_CONTROLLER_PIN);
    175e:	c4 9a       	sbi	0x18, 4	; 24
    1760:	08 95       	ret

00001762 <SPI_send>:
}

void SPI_send(uint8_t cData)
{
	// Start transmission
	SPDR = cData;
    1762:	8f b9       	out	0x0f, r24	; 15
	// Wait for transmission complete
	while(!(SPSR & (1<<SPIF)));
    1764:	77 9b       	sbis	0x0e, 7	; 14
    1766:	fe cf       	rjmp	.-4      	; 0x1764 <SPI_send+0x2>
}
    1768:	08 95       	ret

0000176a <SPI_receive>:

uint8_t SPI_receive()
{
	//To receive byte from the slave a dummy byte should be sent
	SPI_send((uint8_t)0xff);
    176a:	8f ef       	ldi	r24, 0xFF	; 255
    176c:	fa df       	rcall	.-12     	; 0x1762 <SPI_send>
    176e:	77 9b       	sbis	0x0e, 7	; 14

	// Wait for transmission complete
	while(!(SPSR & (1<<SPIF)));
    1770:	fe cf       	rjmp	.-4      	; 0x176e <SPI_receive+0x4>
    1772:	8f b1       	in	r24, 0x0f	; 15

	//read the buffer
	uint8_t data = SPDR;
    1774:	08 95       	ret

00001776 <SPI_activateSlave>:

	return data;
}
    1776:	81 11       	cpse	r24, r1

void SPI_activateSlave(SPI_SLAVES slave)
{
	switch (slave)
    1778:	01 c0       	rjmp	.+2      	; 0x177c <SPI_activateSlave+0x6>
	{
		case SS_CAN_CONTROLLER:
		SELECT_CAN_CONTROLLER_SLAVE;
    177a:	c4 98       	cbi	0x18, 4	; 24
    177c:	08 95       	ret

0000177e <SPI_deactivateSlave>:
	}
}

void SPI_deactivateSlave(SPI_SLAVES slave)
{
	switch (slave)
    177e:	81 11       	cpse	r24, r1
    1780:	01 c0       	rjmp	.+2      	; 0x1784 <SPI_deactivateSlave+0x6>
	{
		case SS_CAN_CONTROLLER:
		UNSELECT_CAN_CONTROLLER_SLAVE;
    1782:	c4 9a       	sbi	0x18, 4	; 24
    1784:	08 95       	ret

00001786 <uartSend>:
#include "UARTlib.h"

void uartSend(const char byte2Send)
{
	/* Wait for empty transmit buffer */
	while ( !( UCSR0A & (1<<UDRE0)) );
    1786:	5d 9b       	sbis	0x0b, 5	; 11
    1788:	fe cf       	rjmp	.-4      	; 0x1786 <uartSend>
	/* Put data into buffer, sends the data */
	UDR0 = byte2Send;
    178a:	8c b9       	out	0x0c, r24	; 12
    178c:	08 95       	ret

0000178e <uartReceive>:
}

uint8_t uartReceive()
{
	/* Wait for data to be received */
	while ( !(UCSR0A & (1<<RXC0)) );
    178e:	5f 9b       	sbis	0x0b, 7	; 11
    1790:	fe cf       	rjmp	.-4      	; 0x178e <uartReceive>
	/* Get and return received data from buffer */
	uint8_t receivedByte = UDR0;
    1792:	8c b1       	in	r24, 0x0c	; 12
	
	return receivedByte;
}
    1794:	08 95       	ret

00001796 <uartInit>:

void uartInit(uint32_t baud, uint32_t fosc, uint32_t ubrr)
{	
    1796:	ef 92       	push	r14
    1798:	ff 92       	push	r15
    179a:	0f 93       	push	r16
    179c:	1f 93       	push	r17
	/*Set BAUD rate*/
	UBRR0H = (uint8_t) (ubrr>>8);
    179e:	bb 27       	eor	r27, r27
    17a0:	a1 2f       	mov	r26, r17
    17a2:	90 2f       	mov	r25, r16
    17a4:	8f 2d       	mov	r24, r15
    17a6:	80 bd       	out	0x20, r24	; 32
	UBRR0L = (uint8_t) ubrr;
    17a8:	e9 b8       	out	0x09, r14	; 9
	
	/* Enable receiver and transmitter */
	UCSR0B = (1<<RXEN0)|(1<<TXEN0);
    17aa:	88 e1       	ldi	r24, 0x18	; 24
    17ac:	8a b9       	out	0x0a, r24	; 10
	
	//Enable UART0 interrupts
	set_bit(UCSR0B, RXCIE0);
    17ae:	57 9a       	sbi	0x0a, 7	; 10
	
	/* Set frame format: 8data, 2stop bit */
	#if defined(__AVR_ATmega162__)
		UCSR0C = (1<<URSEL0)|(1<<USBS0)|(3<<UCSZ00);
    17b0:	8e e8       	ldi	r24, 0x8E	; 142
    17b2:	80 bd       	out	0x20, r24	; 32
	
	#if defined(__AVR_ATmega2560__)
		UCSR0C = (1<<USBS0)|(3<<UCSZ00);
	#endif
	
	fdevopen(uartSend, uartReceive); //if there are any problems with this try &uartSend &uartReceive
    17b4:	67 ec       	ldi	r22, 0xC7	; 199
    17b6:	7b e0       	ldi	r23, 0x0B	; 11
    17b8:	83 ec       	ldi	r24, 0xC3	; 195
    17ba:	9b e0       	ldi	r25, 0x0B	; 11
    17bc:	79 d1       	rcall	.+754    	; 0x1ab0 <fdevopen>
    17be:	1f 91       	pop	r17
    17c0:	0f 91       	pop	r16
    17c2:	ff 90       	pop	r15
    17c4:	ef 90       	pop	r14
    17c6:	08 95       	ret

000017c8 <ADC_request>:
void ADC_init()
{
	//TBD
}

void ADC_request(uint8_t channel, volatile char *ADC_ADDRESS){
    17c8:	9b 01       	movw	r18, r22
	
	switch(channel){
    17ca:	82 30       	cpi	r24, 0x02	; 2
    17cc:	69 f0       	breq	.+26     	; 0x17e8 <ADC_request+0x20>
    17ce:	18 f4       	brcc	.+6      	; 0x17d6 <ADC_request+0xe>
    17d0:	81 30       	cpi	r24, 0x01	; 1
    17d2:	31 f0       	breq	.+12     	; 0x17e0 <ADC_request+0x18>
    17d4:	15 c0       	rjmp	.+42     	; 0x1800 <ADC_request+0x38>
    17d6:	83 30       	cpi	r24, 0x03	; 3
    17d8:	59 f0       	breq	.+22     	; 0x17f0 <ADC_request+0x28>
    17da:	84 30       	cpi	r24, 0x04	; 4
    17dc:	69 f0       	breq	.+26     	; 0x17f8 <ADC_request+0x30>
    17de:	10 c0       	rjmp	.+32     	; 0x1800 <ADC_request+0x38>
		case 1:
			saveToAddress(ADC_ADDRESS, (uint8_t)ch1);
    17e0:	64 e0       	ldi	r22, 0x04	; 4
    17e2:	c9 01       	movw	r24, r18
    17e4:	d4 c8       	rjmp	.-3672   	; 0x98e <saveToAddress>
    17e6:	08 95       	ret
			break;
    17e8:	65 e0       	ldi	r22, 0x05	; 5
			
		case 2:
			saveToAddress(ADC_ADDRESS, (uint8_t)ch2);
    17ea:	c9 01       	movw	r24, r18
    17ec:	d0 c8       	rjmp	.-3680   	; 0x98e <saveToAddress>
    17ee:	08 95       	ret
    17f0:	66 e0       	ldi	r22, 0x06	; 6
			break;
    17f2:	c9 01       	movw	r24, r18
			
		case 3:
			saveToAddress(ADC_ADDRESS, (uint8_t)ch3);
    17f4:	cc c8       	rjmp	.-3688   	; 0x98e <saveToAddress>
    17f6:	08 95       	ret
    17f8:	67 e0       	ldi	r22, 0x07	; 7
    17fa:	c9 01       	movw	r24, r18
			break;
    17fc:	c8 c8       	rjmp	.-3696   	; 0x98e <saveToAddress>
			
		case 4:
			saveToAddress(ADC_ADDRESS, (uint8_t)ch4);
    17fe:	08 95       	ret
    1800:	84 e4       	ldi	r24, 0x44	; 68
    1802:	92 e0       	ldi	r25, 0x02	; 2
    1804:	9f 93       	push	r25
			break;
    1806:	8f 93       	push	r24
			
		default:
			printf("Problems with ADC...");
    1808:	9d d1       	rcall	.+826    	; 0x1b44 <printf>
    180a:	0f 90       	pop	r0
    180c:	0f 90       	pop	r0
    180e:	08 95       	ret

00001810 <ADC_read>:
    1810:	bb c8       	rjmp	.-3722   	; 0x988 <readFromAddress>
    1812:	08 95       	ret

00001814 <__divmodhi4>:
			break;
    1814:	97 fb       	bst	r25, 7
    1816:	07 2e       	mov	r0, r23
    1818:	16 f4       	brtc	.+4      	; 0x181e <__divmodhi4+0xa>
    181a:	00 94       	com	r0
    181c:	06 d0       	rcall	.+12     	; 0x182a <__divmodhi4_neg1>
    181e:	77 fd       	sbrc	r23, 7
    1820:	08 d0       	rcall	.+16     	; 0x1832 <__divmodhi4_neg2>
    1822:	0b d0       	rcall	.+22     	; 0x183a <__udivmodhi4>
    1824:	07 fc       	sbrc	r0, 7
    1826:	05 d0       	rcall	.+10     	; 0x1832 <__divmodhi4_neg2>
    1828:	3e f4       	brtc	.+14     	; 0x1838 <__divmodhi4_exit>

0000182a <__divmodhi4_neg1>:
    182a:	90 95       	com	r25
    182c:	81 95       	neg	r24
    182e:	9f 4f       	sbci	r25, 0xFF	; 255
    1830:	08 95       	ret

00001832 <__divmodhi4_neg2>:
    1832:	70 95       	com	r23
    1834:	61 95       	neg	r22
    1836:	7f 4f       	sbci	r23, 0xFF	; 255

00001838 <__divmodhi4_exit>:
    1838:	08 95       	ret

0000183a <__udivmodhi4>:
    183a:	aa 1b       	sub	r26, r26
    183c:	bb 1b       	sub	r27, r27
    183e:	51 e1       	ldi	r21, 0x11	; 17
    1840:	07 c0       	rjmp	.+14     	; 0x1850 <__udivmodhi4_ep>

00001842 <__udivmodhi4_loop>:
    1842:	aa 1f       	adc	r26, r26
    1844:	bb 1f       	adc	r27, r27
    1846:	a6 17       	cp	r26, r22
    1848:	b7 07       	cpc	r27, r23
    184a:	10 f0       	brcs	.+4      	; 0x1850 <__udivmodhi4_ep>
    184c:	a6 1b       	sub	r26, r22
    184e:	b7 0b       	sbc	r27, r23

00001850 <__udivmodhi4_ep>:
    1850:	88 1f       	adc	r24, r24
    1852:	99 1f       	adc	r25, r25
    1854:	5a 95       	dec	r21
    1856:	a9 f7       	brne	.-22     	; 0x1842 <__udivmodhi4_loop>
    1858:	80 95       	com	r24
    185a:	90 95       	com	r25
    185c:	bc 01       	movw	r22, r24
    185e:	cd 01       	movw	r24, r26
    1860:	08 95       	ret

00001862 <malloc>:
    1862:	cf 93       	push	r28
    1864:	df 93       	push	r29
    1866:	82 30       	cpi	r24, 0x02	; 2
    1868:	91 05       	cpc	r25, r1
    186a:	10 f4       	brcc	.+4      	; 0x1870 <malloc+0xe>
    186c:	82 e0       	ldi	r24, 0x02	; 2
    186e:	90 e0       	ldi	r25, 0x00	; 0
    1870:	e0 91 85 02 	lds	r30, 0x0285
    1874:	f0 91 86 02 	lds	r31, 0x0286
    1878:	20 e0       	ldi	r18, 0x00	; 0
    187a:	30 e0       	ldi	r19, 0x00	; 0
    187c:	a0 e0       	ldi	r26, 0x00	; 0
    187e:	b0 e0       	ldi	r27, 0x00	; 0
    1880:	30 97       	sbiw	r30, 0x00	; 0
    1882:	39 f1       	breq	.+78     	; 0x18d2 <malloc+0x70>
    1884:	40 81       	ld	r20, Z
    1886:	51 81       	ldd	r21, Z+1	; 0x01
    1888:	48 17       	cp	r20, r24
    188a:	59 07       	cpc	r21, r25
    188c:	b8 f0       	brcs	.+46     	; 0x18bc <malloc+0x5a>
    188e:	48 17       	cp	r20, r24
    1890:	59 07       	cpc	r21, r25
    1892:	71 f4       	brne	.+28     	; 0x18b0 <malloc+0x4e>
    1894:	82 81       	ldd	r24, Z+2	; 0x02
    1896:	93 81       	ldd	r25, Z+3	; 0x03
    1898:	10 97       	sbiw	r26, 0x00	; 0
    189a:	29 f0       	breq	.+10     	; 0x18a6 <malloc+0x44>
    189c:	13 96       	adiw	r26, 0x03	; 3
    189e:	9c 93       	st	X, r25
    18a0:	8e 93       	st	-X, r24
    18a2:	12 97       	sbiw	r26, 0x02	; 2
    18a4:	2c c0       	rjmp	.+88     	; 0x18fe <malloc+0x9c>
    18a6:	90 93 86 02 	sts	0x0286, r25
    18aa:	80 93 85 02 	sts	0x0285, r24
    18ae:	27 c0       	rjmp	.+78     	; 0x18fe <malloc+0x9c>
    18b0:	21 15       	cp	r18, r1
    18b2:	31 05       	cpc	r19, r1
    18b4:	31 f0       	breq	.+12     	; 0x18c2 <malloc+0x60>
    18b6:	42 17       	cp	r20, r18
    18b8:	53 07       	cpc	r21, r19
    18ba:	18 f0       	brcs	.+6      	; 0x18c2 <malloc+0x60>
    18bc:	a9 01       	movw	r20, r18
    18be:	db 01       	movw	r26, r22
    18c0:	01 c0       	rjmp	.+2      	; 0x18c4 <malloc+0x62>
    18c2:	ef 01       	movw	r28, r30
    18c4:	9a 01       	movw	r18, r20
    18c6:	bd 01       	movw	r22, r26
    18c8:	df 01       	movw	r26, r30
    18ca:	02 80       	ldd	r0, Z+2	; 0x02
    18cc:	f3 81       	ldd	r31, Z+3	; 0x03
    18ce:	e0 2d       	mov	r30, r0
    18d0:	d7 cf       	rjmp	.-82     	; 0x1880 <malloc+0x1e>
    18d2:	21 15       	cp	r18, r1
    18d4:	31 05       	cpc	r19, r1
    18d6:	f9 f0       	breq	.+62     	; 0x1916 <malloc+0xb4>
    18d8:	28 1b       	sub	r18, r24
    18da:	39 0b       	sbc	r19, r25
    18dc:	24 30       	cpi	r18, 0x04	; 4
    18de:	31 05       	cpc	r19, r1
    18e0:	80 f4       	brcc	.+32     	; 0x1902 <malloc+0xa0>
    18e2:	8a 81       	ldd	r24, Y+2	; 0x02
    18e4:	9b 81       	ldd	r25, Y+3	; 0x03
    18e6:	61 15       	cp	r22, r1
    18e8:	71 05       	cpc	r23, r1
    18ea:	21 f0       	breq	.+8      	; 0x18f4 <malloc+0x92>
    18ec:	fb 01       	movw	r30, r22
    18ee:	93 83       	std	Z+3, r25	; 0x03
    18f0:	82 83       	std	Z+2, r24	; 0x02
    18f2:	04 c0       	rjmp	.+8      	; 0x18fc <malloc+0x9a>
    18f4:	90 93 86 02 	sts	0x0286, r25
    18f8:	80 93 85 02 	sts	0x0285, r24
    18fc:	fe 01       	movw	r30, r28
    18fe:	32 96       	adiw	r30, 0x02	; 2
    1900:	44 c0       	rjmp	.+136    	; 0x198a <malloc+0x128>
    1902:	fe 01       	movw	r30, r28
    1904:	e2 0f       	add	r30, r18
    1906:	f3 1f       	adc	r31, r19
    1908:	81 93       	st	Z+, r24
    190a:	91 93       	st	Z+, r25
    190c:	22 50       	subi	r18, 0x02	; 2
    190e:	31 09       	sbc	r19, r1
    1910:	39 83       	std	Y+1, r19	; 0x01
    1912:	28 83       	st	Y, r18
    1914:	3a c0       	rjmp	.+116    	; 0x198a <malloc+0x128>
    1916:	20 91 83 02 	lds	r18, 0x0283
    191a:	30 91 84 02 	lds	r19, 0x0284
    191e:	23 2b       	or	r18, r19
    1920:	41 f4       	brne	.+16     	; 0x1932 <malloc+0xd0>
    1922:	20 91 02 01 	lds	r18, 0x0102
    1926:	30 91 03 01 	lds	r19, 0x0103
    192a:	30 93 84 02 	sts	0x0284, r19
    192e:	20 93 83 02 	sts	0x0283, r18
    1932:	20 91 00 01 	lds	r18, 0x0100
    1936:	30 91 01 01 	lds	r19, 0x0101
    193a:	21 15       	cp	r18, r1
    193c:	31 05       	cpc	r19, r1
    193e:	41 f4       	brne	.+16     	; 0x1950 <malloc+0xee>
    1940:	2d b7       	in	r18, 0x3d	; 61
    1942:	3e b7       	in	r19, 0x3e	; 62
    1944:	40 91 04 01 	lds	r20, 0x0104
    1948:	50 91 05 01 	lds	r21, 0x0105
    194c:	24 1b       	sub	r18, r20
    194e:	35 0b       	sbc	r19, r21
    1950:	e0 91 83 02 	lds	r30, 0x0283
    1954:	f0 91 84 02 	lds	r31, 0x0284
    1958:	e2 17       	cp	r30, r18
    195a:	f3 07       	cpc	r31, r19
    195c:	a0 f4       	brcc	.+40     	; 0x1986 <malloc+0x124>
    195e:	2e 1b       	sub	r18, r30
    1960:	3f 0b       	sbc	r19, r31
    1962:	28 17       	cp	r18, r24
    1964:	39 07       	cpc	r19, r25
    1966:	78 f0       	brcs	.+30     	; 0x1986 <malloc+0x124>
    1968:	ac 01       	movw	r20, r24
    196a:	4e 5f       	subi	r20, 0xFE	; 254
    196c:	5f 4f       	sbci	r21, 0xFF	; 255
    196e:	24 17       	cp	r18, r20
    1970:	35 07       	cpc	r19, r21
    1972:	48 f0       	brcs	.+18     	; 0x1986 <malloc+0x124>
    1974:	4e 0f       	add	r20, r30
    1976:	5f 1f       	adc	r21, r31
    1978:	50 93 84 02 	sts	0x0284, r21
    197c:	40 93 83 02 	sts	0x0283, r20
    1980:	81 93       	st	Z+, r24
    1982:	91 93       	st	Z+, r25
    1984:	02 c0       	rjmp	.+4      	; 0x198a <malloc+0x128>
    1986:	e0 e0       	ldi	r30, 0x00	; 0
    1988:	f0 e0       	ldi	r31, 0x00	; 0
    198a:	cf 01       	movw	r24, r30
    198c:	df 91       	pop	r29
    198e:	cf 91       	pop	r28
    1990:	08 95       	ret

00001992 <free>:
    1992:	cf 93       	push	r28
    1994:	df 93       	push	r29
    1996:	00 97       	sbiw	r24, 0x00	; 0
    1998:	09 f4       	brne	.+2      	; 0x199c <free+0xa>
    199a:	87 c0       	rjmp	.+270    	; 0x1aaa <free+0x118>
    199c:	fc 01       	movw	r30, r24
    199e:	32 97       	sbiw	r30, 0x02	; 2
    19a0:	13 82       	std	Z+3, r1	; 0x03
    19a2:	12 82       	std	Z+2, r1	; 0x02
    19a4:	c0 91 85 02 	lds	r28, 0x0285
    19a8:	d0 91 86 02 	lds	r29, 0x0286
    19ac:	20 97       	sbiw	r28, 0x00	; 0
    19ae:	81 f4       	brne	.+32     	; 0x19d0 <free+0x3e>
    19b0:	20 81       	ld	r18, Z
    19b2:	31 81       	ldd	r19, Z+1	; 0x01
    19b4:	28 0f       	add	r18, r24
    19b6:	39 1f       	adc	r19, r25
    19b8:	80 91 83 02 	lds	r24, 0x0283
    19bc:	90 91 84 02 	lds	r25, 0x0284
    19c0:	82 17       	cp	r24, r18
    19c2:	93 07       	cpc	r25, r19
    19c4:	79 f5       	brne	.+94     	; 0x1a24 <free+0x92>
    19c6:	f0 93 84 02 	sts	0x0284, r31
    19ca:	e0 93 83 02 	sts	0x0283, r30
    19ce:	6d c0       	rjmp	.+218    	; 0x1aaa <free+0x118>
    19d0:	de 01       	movw	r26, r28
    19d2:	20 e0       	ldi	r18, 0x00	; 0
    19d4:	30 e0       	ldi	r19, 0x00	; 0
    19d6:	ae 17       	cp	r26, r30
    19d8:	bf 07       	cpc	r27, r31
    19da:	50 f4       	brcc	.+20     	; 0x19f0 <free+0x5e>
    19dc:	12 96       	adiw	r26, 0x02	; 2
    19de:	4d 91       	ld	r20, X+
    19e0:	5c 91       	ld	r21, X
    19e2:	13 97       	sbiw	r26, 0x03	; 3
    19e4:	9d 01       	movw	r18, r26
    19e6:	41 15       	cp	r20, r1
    19e8:	51 05       	cpc	r21, r1
    19ea:	09 f1       	breq	.+66     	; 0x1a2e <free+0x9c>
    19ec:	da 01       	movw	r26, r20
    19ee:	f3 cf       	rjmp	.-26     	; 0x19d6 <free+0x44>
    19f0:	b3 83       	std	Z+3, r27	; 0x03
    19f2:	a2 83       	std	Z+2, r26	; 0x02
    19f4:	40 81       	ld	r20, Z
    19f6:	51 81       	ldd	r21, Z+1	; 0x01
    19f8:	84 0f       	add	r24, r20
    19fa:	95 1f       	adc	r25, r21
    19fc:	8a 17       	cp	r24, r26
    19fe:	9b 07       	cpc	r25, r27
    1a00:	71 f4       	brne	.+28     	; 0x1a1e <free+0x8c>
    1a02:	8d 91       	ld	r24, X+
    1a04:	9c 91       	ld	r25, X
    1a06:	11 97       	sbiw	r26, 0x01	; 1
    1a08:	84 0f       	add	r24, r20
    1a0a:	95 1f       	adc	r25, r21
    1a0c:	02 96       	adiw	r24, 0x02	; 2
    1a0e:	91 83       	std	Z+1, r25	; 0x01
    1a10:	80 83       	st	Z, r24
    1a12:	12 96       	adiw	r26, 0x02	; 2
    1a14:	8d 91       	ld	r24, X+
    1a16:	9c 91       	ld	r25, X
    1a18:	13 97       	sbiw	r26, 0x03	; 3
    1a1a:	93 83       	std	Z+3, r25	; 0x03
    1a1c:	82 83       	std	Z+2, r24	; 0x02
    1a1e:	21 15       	cp	r18, r1
    1a20:	31 05       	cpc	r19, r1
    1a22:	29 f4       	brne	.+10     	; 0x1a2e <free+0x9c>
    1a24:	f0 93 86 02 	sts	0x0286, r31
    1a28:	e0 93 85 02 	sts	0x0285, r30
    1a2c:	3e c0       	rjmp	.+124    	; 0x1aaa <free+0x118>
    1a2e:	d9 01       	movw	r26, r18
    1a30:	13 96       	adiw	r26, 0x03	; 3
    1a32:	fc 93       	st	X, r31
    1a34:	ee 93       	st	-X, r30
    1a36:	12 97       	sbiw	r26, 0x02	; 2
    1a38:	4d 91       	ld	r20, X+
    1a3a:	5d 91       	ld	r21, X+
    1a3c:	a4 0f       	add	r26, r20
    1a3e:	b5 1f       	adc	r27, r21
    1a40:	ea 17       	cp	r30, r26
    1a42:	fb 07       	cpc	r31, r27
    1a44:	79 f4       	brne	.+30     	; 0x1a64 <free+0xd2>
    1a46:	80 81       	ld	r24, Z
    1a48:	91 81       	ldd	r25, Z+1	; 0x01
    1a4a:	84 0f       	add	r24, r20
    1a4c:	95 1f       	adc	r25, r21
    1a4e:	02 96       	adiw	r24, 0x02	; 2
    1a50:	d9 01       	movw	r26, r18
    1a52:	11 96       	adiw	r26, 0x01	; 1
    1a54:	9c 93       	st	X, r25
    1a56:	8e 93       	st	-X, r24
    1a58:	82 81       	ldd	r24, Z+2	; 0x02
    1a5a:	93 81       	ldd	r25, Z+3	; 0x03
    1a5c:	13 96       	adiw	r26, 0x03	; 3
    1a5e:	9c 93       	st	X, r25
    1a60:	8e 93       	st	-X, r24
    1a62:	12 97       	sbiw	r26, 0x02	; 2
    1a64:	e0 e0       	ldi	r30, 0x00	; 0
    1a66:	f0 e0       	ldi	r31, 0x00	; 0
    1a68:	8a 81       	ldd	r24, Y+2	; 0x02
    1a6a:	9b 81       	ldd	r25, Y+3	; 0x03
    1a6c:	00 97       	sbiw	r24, 0x00	; 0
    1a6e:	19 f0       	breq	.+6      	; 0x1a76 <free+0xe4>
    1a70:	fe 01       	movw	r30, r28
    1a72:	ec 01       	movw	r28, r24
    1a74:	f9 cf       	rjmp	.-14     	; 0x1a68 <free+0xd6>
    1a76:	ce 01       	movw	r24, r28
    1a78:	02 96       	adiw	r24, 0x02	; 2
    1a7a:	28 81       	ld	r18, Y
    1a7c:	39 81       	ldd	r19, Y+1	; 0x01
    1a7e:	82 0f       	add	r24, r18
    1a80:	93 1f       	adc	r25, r19
    1a82:	20 91 83 02 	lds	r18, 0x0283
    1a86:	30 91 84 02 	lds	r19, 0x0284
    1a8a:	28 17       	cp	r18, r24
    1a8c:	39 07       	cpc	r19, r25
    1a8e:	69 f4       	brne	.+26     	; 0x1aaa <free+0x118>
    1a90:	30 97       	sbiw	r30, 0x00	; 0
    1a92:	29 f4       	brne	.+10     	; 0x1a9e <free+0x10c>
    1a94:	10 92 86 02 	sts	0x0286, r1
    1a98:	10 92 85 02 	sts	0x0285, r1
    1a9c:	02 c0       	rjmp	.+4      	; 0x1aa2 <free+0x110>
    1a9e:	13 82       	std	Z+3, r1	; 0x03
    1aa0:	12 82       	std	Z+2, r1	; 0x02
    1aa2:	d0 93 84 02 	sts	0x0284, r29
    1aa6:	c0 93 83 02 	sts	0x0283, r28
    1aaa:	df 91       	pop	r29
    1aac:	cf 91       	pop	r28
    1aae:	08 95       	ret

00001ab0 <fdevopen>:
    1ab0:	0f 93       	push	r16
    1ab2:	1f 93       	push	r17
    1ab4:	cf 93       	push	r28
    1ab6:	df 93       	push	r29
    1ab8:	ec 01       	movw	r28, r24
    1aba:	8b 01       	movw	r16, r22
    1abc:	00 97       	sbiw	r24, 0x00	; 0
    1abe:	31 f4       	brne	.+12     	; 0x1acc <fdevopen+0x1c>
    1ac0:	61 15       	cp	r22, r1
    1ac2:	71 05       	cpc	r23, r1
    1ac4:	19 f4       	brne	.+6      	; 0x1acc <fdevopen+0x1c>
    1ac6:	80 e0       	ldi	r24, 0x00	; 0
    1ac8:	90 e0       	ldi	r25, 0x00	; 0
    1aca:	37 c0       	rjmp	.+110    	; 0x1b3a <fdevopen+0x8a>
    1acc:	6e e0       	ldi	r22, 0x0E	; 14
    1ace:	70 e0       	ldi	r23, 0x00	; 0
    1ad0:	81 e0       	ldi	r24, 0x01	; 1
    1ad2:	90 e0       	ldi	r25, 0x00	; 0
    1ad4:	3d d2       	rcall	.+1146   	; 0x1f50 <calloc>
    1ad6:	fc 01       	movw	r30, r24
    1ad8:	00 97       	sbiw	r24, 0x00	; 0
    1ada:	a9 f3       	breq	.-22     	; 0x1ac6 <fdevopen+0x16>
    1adc:	80 e8       	ldi	r24, 0x80	; 128
    1ade:	83 83       	std	Z+3, r24	; 0x03
    1ae0:	01 15       	cp	r16, r1
    1ae2:	11 05       	cpc	r17, r1
    1ae4:	71 f0       	breq	.+28     	; 0x1b02 <fdevopen+0x52>
    1ae6:	13 87       	std	Z+11, r17	; 0x0b
    1ae8:	02 87       	std	Z+10, r16	; 0x0a
    1aea:	81 e8       	ldi	r24, 0x81	; 129
    1aec:	83 83       	std	Z+3, r24	; 0x03
    1aee:	80 91 87 02 	lds	r24, 0x0287
    1af2:	90 91 88 02 	lds	r25, 0x0288
    1af6:	89 2b       	or	r24, r25
    1af8:	21 f4       	brne	.+8      	; 0x1b02 <fdevopen+0x52>
    1afa:	f0 93 88 02 	sts	0x0288, r31
    1afe:	e0 93 87 02 	sts	0x0287, r30
    1b02:	20 97       	sbiw	r28, 0x00	; 0
    1b04:	c9 f0       	breq	.+50     	; 0x1b38 <fdevopen+0x88>
    1b06:	d1 87       	std	Z+9, r29	; 0x09
    1b08:	c0 87       	std	Z+8, r28	; 0x08
    1b0a:	83 81       	ldd	r24, Z+3	; 0x03
    1b0c:	82 60       	ori	r24, 0x02	; 2
    1b0e:	83 83       	std	Z+3, r24	; 0x03
    1b10:	80 91 89 02 	lds	r24, 0x0289
    1b14:	90 91 8a 02 	lds	r25, 0x028A
    1b18:	89 2b       	or	r24, r25
    1b1a:	71 f4       	brne	.+28     	; 0x1b38 <fdevopen+0x88>
    1b1c:	f0 93 8a 02 	sts	0x028A, r31
    1b20:	e0 93 89 02 	sts	0x0289, r30
    1b24:	80 91 8b 02 	lds	r24, 0x028B
    1b28:	90 91 8c 02 	lds	r25, 0x028C
    1b2c:	89 2b       	or	r24, r25
    1b2e:	21 f4       	brne	.+8      	; 0x1b38 <fdevopen+0x88>
    1b30:	f0 93 8c 02 	sts	0x028C, r31
    1b34:	e0 93 8b 02 	sts	0x028B, r30
    1b38:	cf 01       	movw	r24, r30
    1b3a:	df 91       	pop	r29
    1b3c:	cf 91       	pop	r28
    1b3e:	1f 91       	pop	r17
    1b40:	0f 91       	pop	r16
    1b42:	08 95       	ret

00001b44 <printf>:
    1b44:	a0 e0       	ldi	r26, 0x00	; 0
    1b46:	b0 e0       	ldi	r27, 0x00	; 0
    1b48:	e7 ea       	ldi	r30, 0xA7	; 167
    1b4a:	fd e0       	ldi	r31, 0x0D	; 13
    1b4c:	d8 c2       	rjmp	.+1456   	; 0x20fe <__prologue_saves__+0x20>
    1b4e:	fe 01       	movw	r30, r28
    1b50:	35 96       	adiw	r30, 0x05	; 5
    1b52:	61 91       	ld	r22, Z+
    1b54:	71 91       	ld	r23, Z+
    1b56:	af 01       	movw	r20, r30
    1b58:	80 91 89 02 	lds	r24, 0x0289
    1b5c:	90 91 8a 02 	lds	r25, 0x028A
    1b60:	34 d0       	rcall	.+104    	; 0x1bca <vfprintf>
    1b62:	e2 e0       	ldi	r30, 0x02	; 2
    1b64:	e8 c2       	rjmp	.+1488   	; 0x2136 <__epilogue_restores__+0x20>

00001b66 <putchar>:
    1b66:	60 91 89 02 	lds	r22, 0x0289
    1b6a:	70 91 8a 02 	lds	r23, 0x028A
    1b6e:	27 c2       	rjmp	.+1102   	; 0x1fbe <fputc>

00001b70 <puts>:
    1b70:	0f 93       	push	r16
    1b72:	1f 93       	push	r17
    1b74:	cf 93       	push	r28
    1b76:	df 93       	push	r29
    1b78:	e0 91 89 02 	lds	r30, 0x0289
    1b7c:	f0 91 8a 02 	lds	r31, 0x028A
    1b80:	23 81       	ldd	r18, Z+3	; 0x03
    1b82:	21 ff       	sbrs	r18, 1
    1b84:	1b c0       	rjmp	.+54     	; 0x1bbc <puts+0x4c>
    1b86:	ec 01       	movw	r28, r24
    1b88:	00 e0       	ldi	r16, 0x00	; 0
    1b8a:	10 e0       	ldi	r17, 0x00	; 0
    1b8c:	89 91       	ld	r24, Y+
    1b8e:	60 91 89 02 	lds	r22, 0x0289
    1b92:	70 91 8a 02 	lds	r23, 0x028A
    1b96:	db 01       	movw	r26, r22
    1b98:	18 96       	adiw	r26, 0x08	; 8
    1b9a:	ed 91       	ld	r30, X+
    1b9c:	fc 91       	ld	r31, X
    1b9e:	19 97       	sbiw	r26, 0x09	; 9
    1ba0:	88 23       	and	r24, r24
    1ba2:	31 f0       	breq	.+12     	; 0x1bb0 <puts+0x40>
    1ba4:	09 95       	icall
    1ba6:	89 2b       	or	r24, r25
    1ba8:	89 f3       	breq	.-30     	; 0x1b8c <puts+0x1c>
    1baa:	0f ef       	ldi	r16, 0xFF	; 255
    1bac:	1f ef       	ldi	r17, 0xFF	; 255
    1bae:	ee cf       	rjmp	.-36     	; 0x1b8c <puts+0x1c>
    1bb0:	8a e0       	ldi	r24, 0x0A	; 10
    1bb2:	09 95       	icall
    1bb4:	89 2b       	or	r24, r25
    1bb6:	11 f4       	brne	.+4      	; 0x1bbc <puts+0x4c>
    1bb8:	c8 01       	movw	r24, r16
    1bba:	02 c0       	rjmp	.+4      	; 0x1bc0 <puts+0x50>
    1bbc:	8f ef       	ldi	r24, 0xFF	; 255
    1bbe:	9f ef       	ldi	r25, 0xFF	; 255
    1bc0:	df 91       	pop	r29
    1bc2:	cf 91       	pop	r28
    1bc4:	1f 91       	pop	r17
    1bc6:	0f 91       	pop	r16
    1bc8:	08 95       	ret

00001bca <vfprintf>:
    1bca:	ac e0       	ldi	r26, 0x0C	; 12
    1bcc:	b0 e0       	ldi	r27, 0x00	; 0
    1bce:	ea ee       	ldi	r30, 0xEA	; 234
    1bd0:	fd e0       	ldi	r31, 0x0D	; 13
    1bd2:	85 c2       	rjmp	.+1290   	; 0x20de <__prologue_saves__>
    1bd4:	7c 01       	movw	r14, r24
    1bd6:	6b 01       	movw	r12, r22
    1bd8:	8a 01       	movw	r16, r20
    1bda:	fc 01       	movw	r30, r24
    1bdc:	17 82       	std	Z+7, r1	; 0x07
    1bde:	16 82       	std	Z+6, r1	; 0x06
    1be0:	83 81       	ldd	r24, Z+3	; 0x03
    1be2:	81 ff       	sbrs	r24, 1
    1be4:	b0 c1       	rjmp	.+864    	; 0x1f46 <vfprintf+0x37c>
    1be6:	ce 01       	movw	r24, r28
    1be8:	01 96       	adiw	r24, 0x01	; 1
    1bea:	4c 01       	movw	r8, r24
    1bec:	f7 01       	movw	r30, r14
    1bee:	93 81       	ldd	r25, Z+3	; 0x03
    1bf0:	f6 01       	movw	r30, r12
    1bf2:	93 fd       	sbrc	r25, 3
    1bf4:	85 91       	lpm	r24, Z+
    1bf6:	93 ff       	sbrs	r25, 3
    1bf8:	81 91       	ld	r24, Z+
    1bfa:	6f 01       	movw	r12, r30
    1bfc:	88 23       	and	r24, r24
    1bfe:	09 f4       	brne	.+2      	; 0x1c02 <vfprintf+0x38>
    1c00:	9e c1       	rjmp	.+828    	; 0x1f3e <vfprintf+0x374>
    1c02:	85 32       	cpi	r24, 0x25	; 37
    1c04:	39 f4       	brne	.+14     	; 0x1c14 <vfprintf+0x4a>
    1c06:	93 fd       	sbrc	r25, 3
    1c08:	85 91       	lpm	r24, Z+
    1c0a:	93 ff       	sbrs	r25, 3
    1c0c:	81 91       	ld	r24, Z+
    1c0e:	6f 01       	movw	r12, r30
    1c10:	85 32       	cpi	r24, 0x25	; 37
    1c12:	21 f4       	brne	.+8      	; 0x1c1c <vfprintf+0x52>
    1c14:	b7 01       	movw	r22, r14
    1c16:	90 e0       	ldi	r25, 0x00	; 0
    1c18:	d2 d1       	rcall	.+932    	; 0x1fbe <fputc>
    1c1a:	e8 cf       	rjmp	.-48     	; 0x1bec <vfprintf+0x22>
    1c1c:	51 2c       	mov	r5, r1
    1c1e:	31 2c       	mov	r3, r1
    1c20:	20 e0       	ldi	r18, 0x00	; 0
    1c22:	20 32       	cpi	r18, 0x20	; 32
    1c24:	a0 f4       	brcc	.+40     	; 0x1c4e <vfprintf+0x84>
    1c26:	8b 32       	cpi	r24, 0x2B	; 43
    1c28:	69 f0       	breq	.+26     	; 0x1c44 <vfprintf+0x7a>
    1c2a:	30 f4       	brcc	.+12     	; 0x1c38 <vfprintf+0x6e>
    1c2c:	80 32       	cpi	r24, 0x20	; 32
    1c2e:	59 f0       	breq	.+22     	; 0x1c46 <vfprintf+0x7c>
    1c30:	83 32       	cpi	r24, 0x23	; 35
    1c32:	69 f4       	brne	.+26     	; 0x1c4e <vfprintf+0x84>
    1c34:	20 61       	ori	r18, 0x10	; 16
    1c36:	2c c0       	rjmp	.+88     	; 0x1c90 <vfprintf+0xc6>
    1c38:	8d 32       	cpi	r24, 0x2D	; 45
    1c3a:	39 f0       	breq	.+14     	; 0x1c4a <vfprintf+0x80>
    1c3c:	80 33       	cpi	r24, 0x30	; 48
    1c3e:	39 f4       	brne	.+14     	; 0x1c4e <vfprintf+0x84>
    1c40:	21 60       	ori	r18, 0x01	; 1
    1c42:	26 c0       	rjmp	.+76     	; 0x1c90 <vfprintf+0xc6>
    1c44:	22 60       	ori	r18, 0x02	; 2
    1c46:	24 60       	ori	r18, 0x04	; 4
    1c48:	23 c0       	rjmp	.+70     	; 0x1c90 <vfprintf+0xc6>
    1c4a:	28 60       	ori	r18, 0x08	; 8
    1c4c:	21 c0       	rjmp	.+66     	; 0x1c90 <vfprintf+0xc6>
    1c4e:	27 fd       	sbrc	r18, 7
    1c50:	27 c0       	rjmp	.+78     	; 0x1ca0 <vfprintf+0xd6>
    1c52:	30 ed       	ldi	r19, 0xD0	; 208
    1c54:	38 0f       	add	r19, r24
    1c56:	3a 30       	cpi	r19, 0x0A	; 10
    1c58:	78 f4       	brcc	.+30     	; 0x1c78 <vfprintf+0xae>
    1c5a:	26 ff       	sbrs	r18, 6
    1c5c:	06 c0       	rjmp	.+12     	; 0x1c6a <vfprintf+0xa0>
    1c5e:	fa e0       	ldi	r31, 0x0A	; 10
    1c60:	5f 9e       	mul	r5, r31
    1c62:	30 0d       	add	r19, r0
    1c64:	11 24       	eor	r1, r1
    1c66:	53 2e       	mov	r5, r19
    1c68:	13 c0       	rjmp	.+38     	; 0x1c90 <vfprintf+0xc6>
    1c6a:	8a e0       	ldi	r24, 0x0A	; 10
    1c6c:	38 9e       	mul	r3, r24
    1c6e:	30 0d       	add	r19, r0
    1c70:	11 24       	eor	r1, r1
    1c72:	33 2e       	mov	r3, r19
    1c74:	20 62       	ori	r18, 0x20	; 32
    1c76:	0c c0       	rjmp	.+24     	; 0x1c90 <vfprintf+0xc6>
    1c78:	8e 32       	cpi	r24, 0x2E	; 46
    1c7a:	21 f4       	brne	.+8      	; 0x1c84 <vfprintf+0xba>
    1c7c:	26 fd       	sbrc	r18, 6
    1c7e:	5f c1       	rjmp	.+702    	; 0x1f3e <vfprintf+0x374>
    1c80:	20 64       	ori	r18, 0x40	; 64
    1c82:	06 c0       	rjmp	.+12     	; 0x1c90 <vfprintf+0xc6>
    1c84:	8c 36       	cpi	r24, 0x6C	; 108
    1c86:	11 f4       	brne	.+4      	; 0x1c8c <vfprintf+0xc2>
    1c88:	20 68       	ori	r18, 0x80	; 128
    1c8a:	02 c0       	rjmp	.+4      	; 0x1c90 <vfprintf+0xc6>
    1c8c:	88 36       	cpi	r24, 0x68	; 104
    1c8e:	41 f4       	brne	.+16     	; 0x1ca0 <vfprintf+0xd6>
    1c90:	f6 01       	movw	r30, r12
    1c92:	93 fd       	sbrc	r25, 3
    1c94:	85 91       	lpm	r24, Z+
    1c96:	93 ff       	sbrs	r25, 3
    1c98:	81 91       	ld	r24, Z+
    1c9a:	6f 01       	movw	r12, r30
    1c9c:	81 11       	cpse	r24, r1
    1c9e:	c1 cf       	rjmp	.-126    	; 0x1c22 <vfprintf+0x58>
    1ca0:	98 2f       	mov	r25, r24
    1ca2:	9f 7d       	andi	r25, 0xDF	; 223
    1ca4:	95 54       	subi	r25, 0x45	; 69
    1ca6:	93 30       	cpi	r25, 0x03	; 3
    1ca8:	28 f4       	brcc	.+10     	; 0x1cb4 <vfprintf+0xea>
    1caa:	0c 5f       	subi	r16, 0xFC	; 252
    1cac:	1f 4f       	sbci	r17, 0xFF	; 255
    1cae:	ff e3       	ldi	r31, 0x3F	; 63
    1cb0:	f9 83       	std	Y+1, r31	; 0x01
    1cb2:	0d c0       	rjmp	.+26     	; 0x1cce <vfprintf+0x104>
    1cb4:	83 36       	cpi	r24, 0x63	; 99
    1cb6:	31 f0       	breq	.+12     	; 0x1cc4 <vfprintf+0xfa>
    1cb8:	83 37       	cpi	r24, 0x73	; 115
    1cba:	71 f0       	breq	.+28     	; 0x1cd8 <vfprintf+0x10e>
    1cbc:	83 35       	cpi	r24, 0x53	; 83
    1cbe:	09 f0       	breq	.+2      	; 0x1cc2 <vfprintf+0xf8>
    1cc0:	57 c0       	rjmp	.+174    	; 0x1d70 <vfprintf+0x1a6>
    1cc2:	21 c0       	rjmp	.+66     	; 0x1d06 <vfprintf+0x13c>
    1cc4:	f8 01       	movw	r30, r16
    1cc6:	80 81       	ld	r24, Z
    1cc8:	89 83       	std	Y+1, r24	; 0x01
    1cca:	0e 5f       	subi	r16, 0xFE	; 254
    1ccc:	1f 4f       	sbci	r17, 0xFF	; 255
    1cce:	44 24       	eor	r4, r4
    1cd0:	43 94       	inc	r4
    1cd2:	51 2c       	mov	r5, r1
    1cd4:	54 01       	movw	r10, r8
    1cd6:	14 c0       	rjmp	.+40     	; 0x1d00 <vfprintf+0x136>
    1cd8:	38 01       	movw	r6, r16
    1cda:	f2 e0       	ldi	r31, 0x02	; 2
    1cdc:	6f 0e       	add	r6, r31
    1cde:	71 1c       	adc	r7, r1
    1ce0:	f8 01       	movw	r30, r16
    1ce2:	a0 80       	ld	r10, Z
    1ce4:	b1 80       	ldd	r11, Z+1	; 0x01
    1ce6:	26 ff       	sbrs	r18, 6
    1ce8:	03 c0       	rjmp	.+6      	; 0x1cf0 <vfprintf+0x126>
    1cea:	65 2d       	mov	r22, r5
    1cec:	70 e0       	ldi	r23, 0x00	; 0
    1cee:	02 c0       	rjmp	.+4      	; 0x1cf4 <vfprintf+0x12a>
    1cf0:	6f ef       	ldi	r22, 0xFF	; 255
    1cf2:	7f ef       	ldi	r23, 0xFF	; 255
    1cf4:	c5 01       	movw	r24, r10
    1cf6:	2c 87       	std	Y+12, r18	; 0x0c
    1cf8:	57 d1       	rcall	.+686    	; 0x1fa8 <strnlen>
    1cfa:	2c 01       	movw	r4, r24
    1cfc:	83 01       	movw	r16, r6
    1cfe:	2c 85       	ldd	r18, Y+12	; 0x0c
    1d00:	2f 77       	andi	r18, 0x7F	; 127
    1d02:	22 2e       	mov	r2, r18
    1d04:	16 c0       	rjmp	.+44     	; 0x1d32 <vfprintf+0x168>
    1d06:	38 01       	movw	r6, r16
    1d08:	f2 e0       	ldi	r31, 0x02	; 2
    1d0a:	6f 0e       	add	r6, r31
    1d0c:	71 1c       	adc	r7, r1
    1d0e:	f8 01       	movw	r30, r16
    1d10:	a0 80       	ld	r10, Z
    1d12:	b1 80       	ldd	r11, Z+1	; 0x01
    1d14:	26 ff       	sbrs	r18, 6
    1d16:	03 c0       	rjmp	.+6      	; 0x1d1e <vfprintf+0x154>
    1d18:	65 2d       	mov	r22, r5
    1d1a:	70 e0       	ldi	r23, 0x00	; 0
    1d1c:	02 c0       	rjmp	.+4      	; 0x1d22 <vfprintf+0x158>
    1d1e:	6f ef       	ldi	r22, 0xFF	; 255
    1d20:	7f ef       	ldi	r23, 0xFF	; 255
    1d22:	c5 01       	movw	r24, r10
    1d24:	2c 87       	std	Y+12, r18	; 0x0c
    1d26:	2e d1       	rcall	.+604    	; 0x1f84 <strnlen_P>
    1d28:	2c 01       	movw	r4, r24
    1d2a:	2c 85       	ldd	r18, Y+12	; 0x0c
    1d2c:	20 68       	ori	r18, 0x80	; 128
    1d2e:	22 2e       	mov	r2, r18
    1d30:	83 01       	movw	r16, r6
    1d32:	23 fc       	sbrc	r2, 3
    1d34:	19 c0       	rjmp	.+50     	; 0x1d68 <vfprintf+0x19e>
    1d36:	83 2d       	mov	r24, r3
    1d38:	90 e0       	ldi	r25, 0x00	; 0
    1d3a:	48 16       	cp	r4, r24
    1d3c:	59 06       	cpc	r5, r25
    1d3e:	a0 f4       	brcc	.+40     	; 0x1d68 <vfprintf+0x19e>
    1d40:	b7 01       	movw	r22, r14
    1d42:	80 e2       	ldi	r24, 0x20	; 32
    1d44:	90 e0       	ldi	r25, 0x00	; 0
    1d46:	3b d1       	rcall	.+630    	; 0x1fbe <fputc>
    1d48:	3a 94       	dec	r3
    1d4a:	f5 cf       	rjmp	.-22     	; 0x1d36 <vfprintf+0x16c>
    1d4c:	f5 01       	movw	r30, r10
    1d4e:	27 fc       	sbrc	r2, 7
    1d50:	85 91       	lpm	r24, Z+
    1d52:	27 fe       	sbrs	r2, 7
    1d54:	81 91       	ld	r24, Z+
    1d56:	5f 01       	movw	r10, r30
    1d58:	b7 01       	movw	r22, r14
    1d5a:	90 e0       	ldi	r25, 0x00	; 0
    1d5c:	30 d1       	rcall	.+608    	; 0x1fbe <fputc>
    1d5e:	31 10       	cpse	r3, r1
    1d60:	3a 94       	dec	r3
    1d62:	f1 e0       	ldi	r31, 0x01	; 1
    1d64:	4f 1a       	sub	r4, r31
    1d66:	51 08       	sbc	r5, r1
    1d68:	41 14       	cp	r4, r1
    1d6a:	51 04       	cpc	r5, r1
    1d6c:	79 f7       	brne	.-34     	; 0x1d4c <vfprintf+0x182>
    1d6e:	de c0       	rjmp	.+444    	; 0x1f2c <vfprintf+0x362>
    1d70:	84 36       	cpi	r24, 0x64	; 100
    1d72:	11 f0       	breq	.+4      	; 0x1d78 <vfprintf+0x1ae>
    1d74:	89 36       	cpi	r24, 0x69	; 105
    1d76:	31 f5       	brne	.+76     	; 0x1dc4 <vfprintf+0x1fa>
    1d78:	f8 01       	movw	r30, r16
    1d7a:	27 ff       	sbrs	r18, 7
    1d7c:	07 c0       	rjmp	.+14     	; 0x1d8c <vfprintf+0x1c2>
    1d7e:	60 81       	ld	r22, Z
    1d80:	71 81       	ldd	r23, Z+1	; 0x01
    1d82:	82 81       	ldd	r24, Z+2	; 0x02
    1d84:	93 81       	ldd	r25, Z+3	; 0x03
    1d86:	0c 5f       	subi	r16, 0xFC	; 252
    1d88:	1f 4f       	sbci	r17, 0xFF	; 255
    1d8a:	08 c0       	rjmp	.+16     	; 0x1d9c <vfprintf+0x1d2>
    1d8c:	60 81       	ld	r22, Z
    1d8e:	71 81       	ldd	r23, Z+1	; 0x01
    1d90:	88 27       	eor	r24, r24
    1d92:	77 fd       	sbrc	r23, 7
    1d94:	80 95       	com	r24
    1d96:	98 2f       	mov	r25, r24
    1d98:	0e 5f       	subi	r16, 0xFE	; 254
    1d9a:	1f 4f       	sbci	r17, 0xFF	; 255
    1d9c:	2f 76       	andi	r18, 0x6F	; 111
    1d9e:	b2 2e       	mov	r11, r18
    1da0:	97 ff       	sbrs	r25, 7
    1da2:	09 c0       	rjmp	.+18     	; 0x1db6 <vfprintf+0x1ec>
    1da4:	90 95       	com	r25
    1da6:	80 95       	com	r24
    1da8:	70 95       	com	r23
    1daa:	61 95       	neg	r22
    1dac:	7f 4f       	sbci	r23, 0xFF	; 255
    1dae:	8f 4f       	sbci	r24, 0xFF	; 255
    1db0:	9f 4f       	sbci	r25, 0xFF	; 255
    1db2:	20 68       	ori	r18, 0x80	; 128
    1db4:	b2 2e       	mov	r11, r18
    1db6:	2a e0       	ldi	r18, 0x0A	; 10
    1db8:	30 e0       	ldi	r19, 0x00	; 0
    1dba:	a4 01       	movw	r20, r8
    1dbc:	32 d1       	rcall	.+612    	; 0x2022 <__ultoa_invert>
    1dbe:	a8 2e       	mov	r10, r24
    1dc0:	a8 18       	sub	r10, r8
    1dc2:	43 c0       	rjmp	.+134    	; 0x1e4a <vfprintf+0x280>
    1dc4:	85 37       	cpi	r24, 0x75	; 117
    1dc6:	29 f4       	brne	.+10     	; 0x1dd2 <vfprintf+0x208>
    1dc8:	2f 7e       	andi	r18, 0xEF	; 239
    1dca:	b2 2e       	mov	r11, r18
    1dcc:	2a e0       	ldi	r18, 0x0A	; 10
    1dce:	30 e0       	ldi	r19, 0x00	; 0
    1dd0:	25 c0       	rjmp	.+74     	; 0x1e1c <vfprintf+0x252>
    1dd2:	f2 2f       	mov	r31, r18
    1dd4:	f9 7f       	andi	r31, 0xF9	; 249
    1dd6:	bf 2e       	mov	r11, r31
    1dd8:	8f 36       	cpi	r24, 0x6F	; 111
    1dda:	c1 f0       	breq	.+48     	; 0x1e0c <vfprintf+0x242>
    1ddc:	18 f4       	brcc	.+6      	; 0x1de4 <vfprintf+0x21a>
    1dde:	88 35       	cpi	r24, 0x58	; 88
    1de0:	79 f0       	breq	.+30     	; 0x1e00 <vfprintf+0x236>
    1de2:	ad c0       	rjmp	.+346    	; 0x1f3e <vfprintf+0x374>
    1de4:	80 37       	cpi	r24, 0x70	; 112
    1de6:	19 f0       	breq	.+6      	; 0x1dee <vfprintf+0x224>
    1de8:	88 37       	cpi	r24, 0x78	; 120
    1dea:	21 f0       	breq	.+8      	; 0x1df4 <vfprintf+0x22a>
    1dec:	a8 c0       	rjmp	.+336    	; 0x1f3e <vfprintf+0x374>
    1dee:	2f 2f       	mov	r18, r31
    1df0:	20 61       	ori	r18, 0x10	; 16
    1df2:	b2 2e       	mov	r11, r18
    1df4:	b4 fe       	sbrs	r11, 4
    1df6:	0d c0       	rjmp	.+26     	; 0x1e12 <vfprintf+0x248>
    1df8:	8b 2d       	mov	r24, r11
    1dfa:	84 60       	ori	r24, 0x04	; 4
    1dfc:	b8 2e       	mov	r11, r24
    1dfe:	09 c0       	rjmp	.+18     	; 0x1e12 <vfprintf+0x248>
    1e00:	24 ff       	sbrs	r18, 4
    1e02:	0a c0       	rjmp	.+20     	; 0x1e18 <vfprintf+0x24e>
    1e04:	9f 2f       	mov	r25, r31
    1e06:	96 60       	ori	r25, 0x06	; 6
    1e08:	b9 2e       	mov	r11, r25
    1e0a:	06 c0       	rjmp	.+12     	; 0x1e18 <vfprintf+0x24e>
    1e0c:	28 e0       	ldi	r18, 0x08	; 8
    1e0e:	30 e0       	ldi	r19, 0x00	; 0
    1e10:	05 c0       	rjmp	.+10     	; 0x1e1c <vfprintf+0x252>
    1e12:	20 e1       	ldi	r18, 0x10	; 16
    1e14:	30 e0       	ldi	r19, 0x00	; 0
    1e16:	02 c0       	rjmp	.+4      	; 0x1e1c <vfprintf+0x252>
    1e18:	20 e1       	ldi	r18, 0x10	; 16
    1e1a:	32 e0       	ldi	r19, 0x02	; 2
    1e1c:	f8 01       	movw	r30, r16
    1e1e:	b7 fe       	sbrs	r11, 7
    1e20:	07 c0       	rjmp	.+14     	; 0x1e30 <vfprintf+0x266>
    1e22:	60 81       	ld	r22, Z
    1e24:	71 81       	ldd	r23, Z+1	; 0x01
    1e26:	82 81       	ldd	r24, Z+2	; 0x02
    1e28:	93 81       	ldd	r25, Z+3	; 0x03
    1e2a:	0c 5f       	subi	r16, 0xFC	; 252
    1e2c:	1f 4f       	sbci	r17, 0xFF	; 255
    1e2e:	06 c0       	rjmp	.+12     	; 0x1e3c <vfprintf+0x272>
    1e30:	60 81       	ld	r22, Z
    1e32:	71 81       	ldd	r23, Z+1	; 0x01
    1e34:	80 e0       	ldi	r24, 0x00	; 0
    1e36:	90 e0       	ldi	r25, 0x00	; 0
    1e38:	0e 5f       	subi	r16, 0xFE	; 254
    1e3a:	1f 4f       	sbci	r17, 0xFF	; 255
    1e3c:	a4 01       	movw	r20, r8
    1e3e:	f1 d0       	rcall	.+482    	; 0x2022 <__ultoa_invert>
    1e40:	a8 2e       	mov	r10, r24
    1e42:	a8 18       	sub	r10, r8
    1e44:	fb 2d       	mov	r31, r11
    1e46:	ff 77       	andi	r31, 0x7F	; 127
    1e48:	bf 2e       	mov	r11, r31
    1e4a:	b6 fe       	sbrs	r11, 6
    1e4c:	0b c0       	rjmp	.+22     	; 0x1e64 <vfprintf+0x29a>
    1e4e:	2b 2d       	mov	r18, r11
    1e50:	2e 7f       	andi	r18, 0xFE	; 254
    1e52:	a5 14       	cp	r10, r5
    1e54:	50 f4       	brcc	.+20     	; 0x1e6a <vfprintf+0x2a0>
    1e56:	b4 fe       	sbrs	r11, 4
    1e58:	0a c0       	rjmp	.+20     	; 0x1e6e <vfprintf+0x2a4>
    1e5a:	b2 fc       	sbrc	r11, 2
    1e5c:	08 c0       	rjmp	.+16     	; 0x1e6e <vfprintf+0x2a4>
    1e5e:	2b 2d       	mov	r18, r11
    1e60:	2e 7e       	andi	r18, 0xEE	; 238
    1e62:	05 c0       	rjmp	.+10     	; 0x1e6e <vfprintf+0x2a4>
    1e64:	7a 2c       	mov	r7, r10
    1e66:	2b 2d       	mov	r18, r11
    1e68:	03 c0       	rjmp	.+6      	; 0x1e70 <vfprintf+0x2a6>
    1e6a:	7a 2c       	mov	r7, r10
    1e6c:	01 c0       	rjmp	.+2      	; 0x1e70 <vfprintf+0x2a6>
    1e6e:	75 2c       	mov	r7, r5
    1e70:	24 ff       	sbrs	r18, 4
    1e72:	0d c0       	rjmp	.+26     	; 0x1e8e <vfprintf+0x2c4>
    1e74:	fe 01       	movw	r30, r28
    1e76:	ea 0d       	add	r30, r10
    1e78:	f1 1d       	adc	r31, r1
    1e7a:	80 81       	ld	r24, Z
    1e7c:	80 33       	cpi	r24, 0x30	; 48
    1e7e:	11 f4       	brne	.+4      	; 0x1e84 <vfprintf+0x2ba>
    1e80:	29 7e       	andi	r18, 0xE9	; 233
    1e82:	09 c0       	rjmp	.+18     	; 0x1e96 <vfprintf+0x2cc>
    1e84:	22 ff       	sbrs	r18, 2
    1e86:	06 c0       	rjmp	.+12     	; 0x1e94 <vfprintf+0x2ca>
    1e88:	73 94       	inc	r7
    1e8a:	73 94       	inc	r7
    1e8c:	04 c0       	rjmp	.+8      	; 0x1e96 <vfprintf+0x2cc>
    1e8e:	82 2f       	mov	r24, r18
    1e90:	86 78       	andi	r24, 0x86	; 134
    1e92:	09 f0       	breq	.+2      	; 0x1e96 <vfprintf+0x2cc>
    1e94:	73 94       	inc	r7
    1e96:	23 fd       	sbrc	r18, 3
    1e98:	12 c0       	rjmp	.+36     	; 0x1ebe <vfprintf+0x2f4>
    1e9a:	20 ff       	sbrs	r18, 0
    1e9c:	06 c0       	rjmp	.+12     	; 0x1eaa <vfprintf+0x2e0>
    1e9e:	5a 2c       	mov	r5, r10
    1ea0:	73 14       	cp	r7, r3
    1ea2:	18 f4       	brcc	.+6      	; 0x1eaa <vfprintf+0x2e0>
    1ea4:	53 0c       	add	r5, r3
    1ea6:	57 18       	sub	r5, r7
    1ea8:	73 2c       	mov	r7, r3
    1eaa:	73 14       	cp	r7, r3
    1eac:	60 f4       	brcc	.+24     	; 0x1ec6 <vfprintf+0x2fc>
    1eae:	b7 01       	movw	r22, r14
    1eb0:	80 e2       	ldi	r24, 0x20	; 32
    1eb2:	90 e0       	ldi	r25, 0x00	; 0
    1eb4:	2c 87       	std	Y+12, r18	; 0x0c
    1eb6:	83 d0       	rcall	.+262    	; 0x1fbe <fputc>
    1eb8:	73 94       	inc	r7
    1eba:	2c 85       	ldd	r18, Y+12	; 0x0c
    1ebc:	f6 cf       	rjmp	.-20     	; 0x1eaa <vfprintf+0x2e0>
    1ebe:	73 14       	cp	r7, r3
    1ec0:	10 f4       	brcc	.+4      	; 0x1ec6 <vfprintf+0x2fc>
    1ec2:	37 18       	sub	r3, r7
    1ec4:	01 c0       	rjmp	.+2      	; 0x1ec8 <vfprintf+0x2fe>
    1ec6:	31 2c       	mov	r3, r1
    1ec8:	24 ff       	sbrs	r18, 4
    1eca:	11 c0       	rjmp	.+34     	; 0x1eee <vfprintf+0x324>
    1ecc:	b7 01       	movw	r22, r14
    1ece:	80 e3       	ldi	r24, 0x30	; 48
    1ed0:	90 e0       	ldi	r25, 0x00	; 0
    1ed2:	2c 87       	std	Y+12, r18	; 0x0c
    1ed4:	74 d0       	rcall	.+232    	; 0x1fbe <fputc>
    1ed6:	2c 85       	ldd	r18, Y+12	; 0x0c
    1ed8:	22 ff       	sbrs	r18, 2
    1eda:	16 c0       	rjmp	.+44     	; 0x1f08 <vfprintf+0x33e>
    1edc:	21 ff       	sbrs	r18, 1
    1ede:	03 c0       	rjmp	.+6      	; 0x1ee6 <vfprintf+0x31c>
    1ee0:	88 e5       	ldi	r24, 0x58	; 88
    1ee2:	90 e0       	ldi	r25, 0x00	; 0
    1ee4:	02 c0       	rjmp	.+4      	; 0x1eea <vfprintf+0x320>
    1ee6:	88 e7       	ldi	r24, 0x78	; 120
    1ee8:	90 e0       	ldi	r25, 0x00	; 0
    1eea:	b7 01       	movw	r22, r14
    1eec:	0c c0       	rjmp	.+24     	; 0x1f06 <vfprintf+0x33c>
    1eee:	82 2f       	mov	r24, r18
    1ef0:	86 78       	andi	r24, 0x86	; 134
    1ef2:	51 f0       	breq	.+20     	; 0x1f08 <vfprintf+0x33e>
    1ef4:	21 fd       	sbrc	r18, 1
    1ef6:	02 c0       	rjmp	.+4      	; 0x1efc <vfprintf+0x332>
    1ef8:	80 e2       	ldi	r24, 0x20	; 32
    1efa:	01 c0       	rjmp	.+2      	; 0x1efe <vfprintf+0x334>
    1efc:	8b e2       	ldi	r24, 0x2B	; 43
    1efe:	27 fd       	sbrc	r18, 7
    1f00:	8d e2       	ldi	r24, 0x2D	; 45
    1f02:	b7 01       	movw	r22, r14
    1f04:	90 e0       	ldi	r25, 0x00	; 0
    1f06:	5b d0       	rcall	.+182    	; 0x1fbe <fputc>
    1f08:	a5 14       	cp	r10, r5
    1f0a:	30 f4       	brcc	.+12     	; 0x1f18 <vfprintf+0x34e>
    1f0c:	b7 01       	movw	r22, r14
    1f0e:	80 e3       	ldi	r24, 0x30	; 48
    1f10:	90 e0       	ldi	r25, 0x00	; 0
    1f12:	55 d0       	rcall	.+170    	; 0x1fbe <fputc>
    1f14:	5a 94       	dec	r5
    1f16:	f8 cf       	rjmp	.-16     	; 0x1f08 <vfprintf+0x33e>
    1f18:	aa 94       	dec	r10
    1f1a:	f4 01       	movw	r30, r8
    1f1c:	ea 0d       	add	r30, r10
    1f1e:	f1 1d       	adc	r31, r1
    1f20:	80 81       	ld	r24, Z
    1f22:	b7 01       	movw	r22, r14
    1f24:	90 e0       	ldi	r25, 0x00	; 0
    1f26:	4b d0       	rcall	.+150    	; 0x1fbe <fputc>
    1f28:	a1 10       	cpse	r10, r1
    1f2a:	f6 cf       	rjmp	.-20     	; 0x1f18 <vfprintf+0x34e>
    1f2c:	33 20       	and	r3, r3
    1f2e:	09 f4       	brne	.+2      	; 0x1f32 <vfprintf+0x368>
    1f30:	5d ce       	rjmp	.-838    	; 0x1bec <vfprintf+0x22>
    1f32:	b7 01       	movw	r22, r14
    1f34:	80 e2       	ldi	r24, 0x20	; 32
    1f36:	90 e0       	ldi	r25, 0x00	; 0
    1f38:	42 d0       	rcall	.+132    	; 0x1fbe <fputc>
    1f3a:	3a 94       	dec	r3
    1f3c:	f7 cf       	rjmp	.-18     	; 0x1f2c <vfprintf+0x362>
    1f3e:	f7 01       	movw	r30, r14
    1f40:	86 81       	ldd	r24, Z+6	; 0x06
    1f42:	97 81       	ldd	r25, Z+7	; 0x07
    1f44:	02 c0       	rjmp	.+4      	; 0x1f4a <vfprintf+0x380>
    1f46:	8f ef       	ldi	r24, 0xFF	; 255
    1f48:	9f ef       	ldi	r25, 0xFF	; 255
    1f4a:	2c 96       	adiw	r28, 0x0c	; 12
    1f4c:	e2 e1       	ldi	r30, 0x12	; 18
    1f4e:	e3 c0       	rjmp	.+454    	; 0x2116 <__epilogue_restores__>

00001f50 <calloc>:
    1f50:	0f 93       	push	r16
    1f52:	1f 93       	push	r17
    1f54:	cf 93       	push	r28
    1f56:	df 93       	push	r29
    1f58:	86 9f       	mul	r24, r22
    1f5a:	80 01       	movw	r16, r0
    1f5c:	87 9f       	mul	r24, r23
    1f5e:	10 0d       	add	r17, r0
    1f60:	96 9f       	mul	r25, r22
    1f62:	10 0d       	add	r17, r0
    1f64:	11 24       	eor	r1, r1
    1f66:	c8 01       	movw	r24, r16
    1f68:	7c dc       	rcall	.-1800   	; 0x1862 <malloc>
    1f6a:	ec 01       	movw	r28, r24
    1f6c:	00 97       	sbiw	r24, 0x00	; 0
    1f6e:	21 f0       	breq	.+8      	; 0x1f78 <calloc+0x28>
    1f70:	a8 01       	movw	r20, r16
    1f72:	60 e0       	ldi	r22, 0x00	; 0
    1f74:	70 e0       	ldi	r23, 0x00	; 0
    1f76:	11 d0       	rcall	.+34     	; 0x1f9a <memset>
    1f78:	ce 01       	movw	r24, r28
    1f7a:	df 91       	pop	r29
    1f7c:	cf 91       	pop	r28
    1f7e:	1f 91       	pop	r17
    1f80:	0f 91       	pop	r16
    1f82:	08 95       	ret

00001f84 <strnlen_P>:
    1f84:	fc 01       	movw	r30, r24
    1f86:	05 90       	lpm	r0, Z+
    1f88:	61 50       	subi	r22, 0x01	; 1
    1f8a:	70 40       	sbci	r23, 0x00	; 0
    1f8c:	01 10       	cpse	r0, r1
    1f8e:	d8 f7       	brcc	.-10     	; 0x1f86 <strnlen_P+0x2>
    1f90:	80 95       	com	r24
    1f92:	90 95       	com	r25
    1f94:	8e 0f       	add	r24, r30
    1f96:	9f 1f       	adc	r25, r31
    1f98:	08 95       	ret

00001f9a <memset>:
    1f9a:	dc 01       	movw	r26, r24
    1f9c:	01 c0       	rjmp	.+2      	; 0x1fa0 <memset+0x6>
    1f9e:	6d 93       	st	X+, r22
    1fa0:	41 50       	subi	r20, 0x01	; 1
    1fa2:	50 40       	sbci	r21, 0x00	; 0
    1fa4:	e0 f7       	brcc	.-8      	; 0x1f9e <memset+0x4>
    1fa6:	08 95       	ret

00001fa8 <strnlen>:
    1fa8:	fc 01       	movw	r30, r24
    1faa:	61 50       	subi	r22, 0x01	; 1
    1fac:	70 40       	sbci	r23, 0x00	; 0
    1fae:	01 90       	ld	r0, Z+
    1fb0:	01 10       	cpse	r0, r1
    1fb2:	d8 f7       	brcc	.-10     	; 0x1faa <strnlen+0x2>
    1fb4:	80 95       	com	r24
    1fb6:	90 95       	com	r25
    1fb8:	8e 0f       	add	r24, r30
    1fba:	9f 1f       	adc	r25, r31
    1fbc:	08 95       	ret

00001fbe <fputc>:
    1fbe:	0f 93       	push	r16
    1fc0:	1f 93       	push	r17
    1fc2:	cf 93       	push	r28
    1fc4:	df 93       	push	r29
    1fc6:	18 2f       	mov	r17, r24
    1fc8:	09 2f       	mov	r16, r25
    1fca:	eb 01       	movw	r28, r22
    1fcc:	8b 81       	ldd	r24, Y+3	; 0x03
    1fce:	81 fd       	sbrc	r24, 1
    1fd0:	03 c0       	rjmp	.+6      	; 0x1fd8 <fputc+0x1a>
    1fd2:	8f ef       	ldi	r24, 0xFF	; 255
    1fd4:	9f ef       	ldi	r25, 0xFF	; 255
    1fd6:	20 c0       	rjmp	.+64     	; 0x2018 <fputc+0x5a>
    1fd8:	82 ff       	sbrs	r24, 2
    1fda:	10 c0       	rjmp	.+32     	; 0x1ffc <fputc+0x3e>
    1fdc:	4e 81       	ldd	r20, Y+6	; 0x06
    1fde:	5f 81       	ldd	r21, Y+7	; 0x07
    1fe0:	2c 81       	ldd	r18, Y+4	; 0x04
    1fe2:	3d 81       	ldd	r19, Y+5	; 0x05
    1fe4:	42 17       	cp	r20, r18
    1fe6:	53 07       	cpc	r21, r19
    1fe8:	7c f4       	brge	.+30     	; 0x2008 <fputc+0x4a>
    1fea:	e8 81       	ld	r30, Y
    1fec:	f9 81       	ldd	r31, Y+1	; 0x01
    1fee:	9f 01       	movw	r18, r30
    1ff0:	2f 5f       	subi	r18, 0xFF	; 255
    1ff2:	3f 4f       	sbci	r19, 0xFF	; 255
    1ff4:	39 83       	std	Y+1, r19	; 0x01
    1ff6:	28 83       	st	Y, r18
    1ff8:	10 83       	st	Z, r17
    1ffa:	06 c0       	rjmp	.+12     	; 0x2008 <fputc+0x4a>
    1ffc:	e8 85       	ldd	r30, Y+8	; 0x08
    1ffe:	f9 85       	ldd	r31, Y+9	; 0x09
    2000:	81 2f       	mov	r24, r17
    2002:	09 95       	icall
    2004:	89 2b       	or	r24, r25
    2006:	29 f7       	brne	.-54     	; 0x1fd2 <fputc+0x14>
    2008:	2e 81       	ldd	r18, Y+6	; 0x06
    200a:	3f 81       	ldd	r19, Y+7	; 0x07
    200c:	2f 5f       	subi	r18, 0xFF	; 255
    200e:	3f 4f       	sbci	r19, 0xFF	; 255
    2010:	3f 83       	std	Y+7, r19	; 0x07
    2012:	2e 83       	std	Y+6, r18	; 0x06
    2014:	81 2f       	mov	r24, r17
    2016:	90 2f       	mov	r25, r16
    2018:	df 91       	pop	r29
    201a:	cf 91       	pop	r28
    201c:	1f 91       	pop	r17
    201e:	0f 91       	pop	r16
    2020:	08 95       	ret

00002022 <__ultoa_invert>:
    2022:	fa 01       	movw	r30, r20
    2024:	aa 27       	eor	r26, r26
    2026:	28 30       	cpi	r18, 0x08	; 8
    2028:	51 f1       	breq	.+84     	; 0x207e <__ultoa_invert+0x5c>
    202a:	20 31       	cpi	r18, 0x10	; 16
    202c:	81 f1       	breq	.+96     	; 0x208e <__ultoa_invert+0x6c>
    202e:	e8 94       	clt
    2030:	6f 93       	push	r22
    2032:	6e 7f       	andi	r22, 0xFE	; 254
    2034:	6e 5f       	subi	r22, 0xFE	; 254
    2036:	7f 4f       	sbci	r23, 0xFF	; 255
    2038:	8f 4f       	sbci	r24, 0xFF	; 255
    203a:	9f 4f       	sbci	r25, 0xFF	; 255
    203c:	af 4f       	sbci	r26, 0xFF	; 255
    203e:	b1 e0       	ldi	r27, 0x01	; 1
    2040:	3e d0       	rcall	.+124    	; 0x20be <__ultoa_invert+0x9c>
    2042:	b4 e0       	ldi	r27, 0x04	; 4
    2044:	3c d0       	rcall	.+120    	; 0x20be <__ultoa_invert+0x9c>
    2046:	67 0f       	add	r22, r23
    2048:	78 1f       	adc	r23, r24
    204a:	89 1f       	adc	r24, r25
    204c:	9a 1f       	adc	r25, r26
    204e:	a1 1d       	adc	r26, r1
    2050:	68 0f       	add	r22, r24
    2052:	79 1f       	adc	r23, r25
    2054:	8a 1f       	adc	r24, r26
    2056:	91 1d       	adc	r25, r1
    2058:	a1 1d       	adc	r26, r1
    205a:	6a 0f       	add	r22, r26
    205c:	71 1d       	adc	r23, r1
    205e:	81 1d       	adc	r24, r1
    2060:	91 1d       	adc	r25, r1
    2062:	a1 1d       	adc	r26, r1
    2064:	20 d0       	rcall	.+64     	; 0x20a6 <__ultoa_invert+0x84>
    2066:	09 f4       	brne	.+2      	; 0x206a <__ultoa_invert+0x48>
    2068:	68 94       	set
    206a:	3f 91       	pop	r19
    206c:	2a e0       	ldi	r18, 0x0A	; 10
    206e:	26 9f       	mul	r18, r22
    2070:	11 24       	eor	r1, r1
    2072:	30 19       	sub	r19, r0
    2074:	30 5d       	subi	r19, 0xD0	; 208
    2076:	31 93       	st	Z+, r19
    2078:	de f6       	brtc	.-74     	; 0x2030 <__ultoa_invert+0xe>
    207a:	cf 01       	movw	r24, r30
    207c:	08 95       	ret
    207e:	46 2f       	mov	r20, r22
    2080:	47 70       	andi	r20, 0x07	; 7
    2082:	40 5d       	subi	r20, 0xD0	; 208
    2084:	41 93       	st	Z+, r20
    2086:	b3 e0       	ldi	r27, 0x03	; 3
    2088:	0f d0       	rcall	.+30     	; 0x20a8 <__ultoa_invert+0x86>
    208a:	c9 f7       	brne	.-14     	; 0x207e <__ultoa_invert+0x5c>
    208c:	f6 cf       	rjmp	.-20     	; 0x207a <__ultoa_invert+0x58>
    208e:	46 2f       	mov	r20, r22
    2090:	4f 70       	andi	r20, 0x0F	; 15
    2092:	40 5d       	subi	r20, 0xD0	; 208
    2094:	4a 33       	cpi	r20, 0x3A	; 58
    2096:	18 f0       	brcs	.+6      	; 0x209e <__ultoa_invert+0x7c>
    2098:	49 5d       	subi	r20, 0xD9	; 217
    209a:	31 fd       	sbrc	r19, 1
    209c:	40 52       	subi	r20, 0x20	; 32
    209e:	41 93       	st	Z+, r20
    20a0:	02 d0       	rcall	.+4      	; 0x20a6 <__ultoa_invert+0x84>
    20a2:	a9 f7       	brne	.-22     	; 0x208e <__ultoa_invert+0x6c>
    20a4:	ea cf       	rjmp	.-44     	; 0x207a <__ultoa_invert+0x58>
    20a6:	b4 e0       	ldi	r27, 0x04	; 4
    20a8:	a6 95       	lsr	r26
    20aa:	97 95       	ror	r25
    20ac:	87 95       	ror	r24
    20ae:	77 95       	ror	r23
    20b0:	67 95       	ror	r22
    20b2:	ba 95       	dec	r27
    20b4:	c9 f7       	brne	.-14     	; 0x20a8 <__ultoa_invert+0x86>
    20b6:	00 97       	sbiw	r24, 0x00	; 0
    20b8:	61 05       	cpc	r22, r1
    20ba:	71 05       	cpc	r23, r1
    20bc:	08 95       	ret
    20be:	9b 01       	movw	r18, r22
    20c0:	ac 01       	movw	r20, r24
    20c2:	0a 2e       	mov	r0, r26
    20c4:	06 94       	lsr	r0
    20c6:	57 95       	ror	r21
    20c8:	47 95       	ror	r20
    20ca:	37 95       	ror	r19
    20cc:	27 95       	ror	r18
    20ce:	ba 95       	dec	r27
    20d0:	c9 f7       	brne	.-14     	; 0x20c4 <__ultoa_invert+0xa2>
    20d2:	62 0f       	add	r22, r18
    20d4:	73 1f       	adc	r23, r19
    20d6:	84 1f       	adc	r24, r20
    20d8:	95 1f       	adc	r25, r21
    20da:	a0 1d       	adc	r26, r0
    20dc:	08 95       	ret

000020de <__prologue_saves__>:
    20de:	2f 92       	push	r2
    20e0:	3f 92       	push	r3
    20e2:	4f 92       	push	r4
    20e4:	5f 92       	push	r5
    20e6:	6f 92       	push	r6
    20e8:	7f 92       	push	r7
    20ea:	8f 92       	push	r8
    20ec:	9f 92       	push	r9
    20ee:	af 92       	push	r10
    20f0:	bf 92       	push	r11
    20f2:	cf 92       	push	r12
    20f4:	df 92       	push	r13
    20f6:	ef 92       	push	r14
    20f8:	ff 92       	push	r15
    20fa:	0f 93       	push	r16
    20fc:	1f 93       	push	r17
    20fe:	cf 93       	push	r28
    2100:	df 93       	push	r29
    2102:	cd b7       	in	r28, 0x3d	; 61
    2104:	de b7       	in	r29, 0x3e	; 62
    2106:	ca 1b       	sub	r28, r26
    2108:	db 0b       	sbc	r29, r27
    210a:	0f b6       	in	r0, 0x3f	; 63
    210c:	f8 94       	cli
    210e:	de bf       	out	0x3e, r29	; 62
    2110:	0f be       	out	0x3f, r0	; 63
    2112:	cd bf       	out	0x3d, r28	; 61
    2114:	09 94       	ijmp

00002116 <__epilogue_restores__>:
    2116:	2a 88       	ldd	r2, Y+18	; 0x12
    2118:	39 88       	ldd	r3, Y+17	; 0x11
    211a:	48 88       	ldd	r4, Y+16	; 0x10
    211c:	5f 84       	ldd	r5, Y+15	; 0x0f
    211e:	6e 84       	ldd	r6, Y+14	; 0x0e
    2120:	7d 84       	ldd	r7, Y+13	; 0x0d
    2122:	8c 84       	ldd	r8, Y+12	; 0x0c
    2124:	9b 84       	ldd	r9, Y+11	; 0x0b
    2126:	aa 84       	ldd	r10, Y+10	; 0x0a
    2128:	b9 84       	ldd	r11, Y+9	; 0x09
    212a:	c8 84       	ldd	r12, Y+8	; 0x08
    212c:	df 80       	ldd	r13, Y+7	; 0x07
    212e:	ee 80       	ldd	r14, Y+6	; 0x06
    2130:	fd 80       	ldd	r15, Y+5	; 0x05
    2132:	0c 81       	ldd	r16, Y+4	; 0x04
    2134:	1b 81       	ldd	r17, Y+3	; 0x03
    2136:	aa 81       	ldd	r26, Y+2	; 0x02
    2138:	b9 81       	ldd	r27, Y+1	; 0x01
    213a:	ce 0f       	add	r28, r30
    213c:	d1 1d       	adc	r29, r1
    213e:	0f b6       	in	r0, 0x3f	; 63
    2140:	f8 94       	cli
    2142:	de bf       	out	0x3e, r29	; 62
    2144:	0f be       	out	0x3f, r0	; 63
    2146:	cd bf       	out	0x3d, r28	; 61
    2148:	ed 01       	movw	r28, r26
    214a:	08 95       	ret

0000214c <_exit>:
    214c:	f8 94       	cli

0000214e <__stop_program>:
    214e:	ff cf       	rjmp	.-2      	; 0x214e <__stop_program>
