
ProjectMain.elf:     file format elf32-avr

Sections:
Idx Name          Size      VMA       LMA       File off  Algn
  0 .data         000000e8  00800100  00000ef0  00000f84  2**0
                  CONTENTS, ALLOC, LOAD, DATA
  1 .text         00000ef0  00000000  00000000  00000094  2**1
                  CONTENTS, ALLOC, LOAD, READONLY, CODE
  2 .bss          00000017  008001e8  008001e8  0000106c  2**0
                  ALLOC
  3 .comment      0000005c  00000000  00000000  0000106c  2**0
                  CONTENTS, READONLY

Disassembly of section .text:

00000000 <__vectors>:
   0:	37 c0       	rjmp	.+110    	; 0x70 <__ctors_end>
   2:	00 00       	nop
   4:	63 c0       	rjmp	.+198    	; 0xcc <__vector_1>
   6:	00 00       	nop
   8:	70 c0       	rjmp	.+224    	; 0xea <__vector_2>
   a:	00 00       	nop
   c:	4c c0       	rjmp	.+152    	; 0xa6 <__bad_interrupt>
   e:	00 00       	nop
  10:	4a c0       	rjmp	.+148    	; 0xa6 <__bad_interrupt>
  12:	00 00       	nop
  14:	48 c0       	rjmp	.+144    	; 0xa6 <__bad_interrupt>
  16:	00 00       	nop
  18:	46 c0       	rjmp	.+140    	; 0xa6 <__bad_interrupt>
  1a:	00 00       	nop
  1c:	44 c0       	rjmp	.+136    	; 0xa6 <__bad_interrupt>
  1e:	00 00       	nop
  20:	42 c0       	rjmp	.+132    	; 0xa6 <__bad_interrupt>
  22:	00 00       	nop
  24:	40 c0       	rjmp	.+128    	; 0xa6 <__bad_interrupt>
  26:	00 00       	nop
  28:	3e c0       	rjmp	.+124    	; 0xa6 <__bad_interrupt>
  2a:	00 00       	nop
  2c:	3c c0       	rjmp	.+120    	; 0xa6 <__bad_interrupt>
  2e:	00 00       	nop
  30:	3a c0       	rjmp	.+116    	; 0xa6 <__bad_interrupt>
  32:	00 00       	nop
  34:	38 c0       	rjmp	.+112    	; 0xa6 <__bad_interrupt>
  36:	00 00       	nop
  38:	36 c0       	rjmp	.+108    	; 0xa6 <__bad_interrupt>
  3a:	00 00       	nop
  3c:	34 c0       	rjmp	.+104    	; 0xa6 <__bad_interrupt>
  3e:	00 00       	nop
  40:	32 c0       	rjmp	.+100    	; 0xa6 <__bad_interrupt>
  42:	00 00       	nop
  44:	30 c0       	rjmp	.+96     	; 0xa6 <__bad_interrupt>
  46:	00 00       	nop
  48:	2e c0       	rjmp	.+92     	; 0xa6 <__bad_interrupt>
  4a:	00 00       	nop
  4c:	2d c0       	rjmp	.+90     	; 0xa8 <__vector_19>
  4e:	00 00       	nop
  50:	2a c0       	rjmp	.+84     	; 0xa6 <__bad_interrupt>
  52:	00 00       	nop
  54:	28 c0       	rjmp	.+80     	; 0xa6 <__bad_interrupt>
  56:	00 00       	nop
  58:	26 c0       	rjmp	.+76     	; 0xa6 <__bad_interrupt>
  5a:	00 00       	nop
  5c:	24 c0       	rjmp	.+72     	; 0xa6 <__bad_interrupt>
  5e:	00 00       	nop
  60:	22 c0       	rjmp	.+68     	; 0xa6 <__bad_interrupt>
  62:	00 00       	nop
  64:	20 c0       	rjmp	.+64     	; 0xa6 <__bad_interrupt>
  66:	00 00       	nop
  68:	1e c0       	rjmp	.+60     	; 0xa6 <__bad_interrupt>
  6a:	00 00       	nop
  6c:	1c c0       	rjmp	.+56     	; 0xa6 <__bad_interrupt>
	...

00000070 <__ctors_end>:
  70:	11 24       	eor	r1, r1
  72:	1f be       	out	0x3f, r1	; 63
  74:	cf ef       	ldi	r28, 0xFF	; 255
  76:	d4 e0       	ldi	r29, 0x04	; 4
  78:	de bf       	out	0x3e, r29	; 62
  7a:	cd bf       	out	0x3d, r28	; 61

0000007c <__do_copy_data>:
  7c:	11 e0       	ldi	r17, 0x01	; 1
  7e:	a0 e0       	ldi	r26, 0x00	; 0
  80:	b1 e0       	ldi	r27, 0x01	; 1
  82:	e0 ef       	ldi	r30, 0xF0	; 240
  84:	fe e0       	ldi	r31, 0x0E	; 14
  86:	02 c0       	rjmp	.+4      	; 0x8c <__do_copy_data+0x10>
  88:	05 90       	lpm	r0, Z+
  8a:	0d 92       	st	X+, r0
  8c:	a8 3e       	cpi	r26, 0xE8	; 232
  8e:	b1 07       	cpc	r27, r17
  90:	d9 f7       	brne	.-10     	; 0x88 <__do_copy_data+0xc>

00000092 <__do_clear_bss>:
  92:	21 e0       	ldi	r18, 0x01	; 1
  94:	a8 ee       	ldi	r26, 0xE8	; 232
  96:	b1 e0       	ldi	r27, 0x01	; 1
  98:	01 c0       	rjmp	.+2      	; 0x9c <.do_clear_bss_start>

0000009a <.do_clear_bss_loop>:
  9a:	1d 92       	st	X+, r1

0000009c <.do_clear_bss_start>:
  9c:	af 3f       	cpi	r26, 0xFF	; 255
  9e:	b2 07       	cpc	r27, r18
  a0:	e1 f7       	brne	.-8      	; 0x9a <.do_clear_bss_loop>
  a2:	32 d0       	rcall	.+100    	; 0x108 <main>
  a4:	23 c7       	rjmp	.+3654   	; 0xeec <_exit>

000000a6 <__bad_interrupt>:
  a6:	ac cf       	rjmp	.-168    	; 0x0 <__vectors>

000000a8 <__vector_19>:
  a8:	1f 92       	push	r1
  aa:	0f 92       	push	r0
  ac:	0f b6       	in	r0, 0x3f	; 63
  ae:	0f 92       	push	r0
  b0:	11 24       	eor	r1, r1
  b2:	8f 93       	push	r24
  b4:	8c b1       	in	r24, 0x0c	; 12
  b6:	80 93 eb 01 	sts	0x01EB, r24
  ba:	81 e0       	ldi	r24, 0x01	; 1
  bc:	80 93 ea 01 	sts	0x01EA, r24
  c0:	8f 91       	pop	r24
  c2:	0f 90       	pop	r0
  c4:	0f be       	out	0x3f, r0	; 63
  c6:	0f 90       	pop	r0
  c8:	1f 90       	pop	r1
  ca:	18 95       	reti

000000cc <__vector_1>:
  cc:	1f 92       	push	r1
  ce:	0f 92       	push	r0
  d0:	0f b6       	in	r0, 0x3f	; 63
  d2:	0f 92       	push	r0
  d4:	11 24       	eor	r1, r1
  d6:	8f 93       	push	r24
  d8:	81 e0       	ldi	r24, 0x01	; 1
  da:	80 93 e9 01 	sts	0x01E9, r24
  de:	8f 91       	pop	r24
  e0:	0f 90       	pop	r0
  e2:	0f be       	out	0x3f, r0	; 63
  e4:	0f 90       	pop	r0
  e6:	1f 90       	pop	r1
  e8:	18 95       	reti

000000ea <__vector_2>:
  ea:	1f 92       	push	r1
  ec:	0f 92       	push	r0
  ee:	0f b6       	in	r0, 0x3f	; 63
  f0:	0f 92       	push	r0
  f2:	11 24       	eor	r1, r1
  f4:	8f 93       	push	r24
  f6:	81 e0       	ldi	r24, 0x01	; 1
  f8:	80 93 e8 01 	sts	0x01E8, r24
  fc:	8f 91       	pop	r24
  fe:	0f 90       	pop	r0
 100:	0f be       	out	0x3f, r0	; 63
 102:	0f 90       	pop	r0
 104:	1f 90       	pop	r1
 106:	18 95       	reti

00000108 <main>:
 108:	1f e1       	ldi	r17, 0x1F	; 31
 10a:	e1 2e       	mov	r14, r17
 10c:	f1 2c       	mov	r15, r1
 10e:	00 e0       	ldi	r16, 0x00	; 0
 110:	10 e0       	ldi	r17, 0x00	; 0
 112:	20 e0       	ldi	r18, 0x00	; 0
 114:	30 e0       	ldi	r19, 0x00	; 0
 116:	4b e4       	ldi	r20, 0x4B	; 75
 118:	50 e0       	ldi	r21, 0x00	; 0
 11a:	60 e8       	ldi	r22, 0x80	; 128
 11c:	75 e2       	ldi	r23, 0x25	; 37
 11e:	80 e0       	ldi	r24, 0x00	; 0
 120:	90 e0       	ldi	r25, 0x00	; 0
 122:	19 d2       	rcall	.+1074   	; 0x556 <uartInit>
 124:	81 e0       	ldi	r24, 0x01	; 1
 126:	3b d0       	rcall	.+118    	; 0x19e <enableXMEM>
 128:	8b b7       	in	r24, 0x3b	; 59
 12a:	80 64       	ori	r24, 0x40	; 64
 12c:	8b bf       	out	0x3b, r24	; 59
 12e:	85 b7       	in	r24, 0x35	; 53
 130:	82 60       	ori	r24, 0x02	; 2
 132:	85 bf       	out	0x35, r24	; 53
 134:	85 b7       	in	r24, 0x35	; 53
 136:	8e 7f       	andi	r24, 0xFE	; 254
 138:	85 bf       	out	0x35, r24	; 53
 13a:	8b 98       	cbi	0x11, 3	; 17
 13c:	93 9a       	sbi	0x12, 3	; 18
 13e:	8b b7       	in	r24, 0x3b	; 59
 140:	80 68       	ori	r24, 0x80	; 128
 142:	8b bf       	out	0x3b, r24	; 59
 144:	85 b7       	in	r24, 0x35	; 53
 146:	88 60       	ori	r24, 0x08	; 8
 148:	85 bf       	out	0x35, r24	; 53
 14a:	85 b7       	in	r24, 0x35	; 53
 14c:	8b 7f       	andi	r24, 0xFB	; 251
 14e:	85 bf       	out	0x35, r24	; 53
 150:	78 94       	sei
 152:	88 e7       	ldi	r24, 0x78	; 120
 154:	a7 d0       	rcall	.+334    	; 0x2a4 <JOY_requestCurrentPosition>
 156:	c1 e0       	ldi	r28, 0x01	; 1
 158:	80 91 e8 01 	lds	r24, 0x01E8
 15c:	88 23       	and	r24, r24
 15e:	19 f0       	breq	.+6      	; 0x166 <main+0x5e>
 160:	cd d0       	rcall	.+410    	; 0x2fc <JOY_calibrate>
 162:	10 92 e8 01 	sts	0x01E8, r1
 166:	b2 d1       	rcall	.+868    	; 0x4cc <JOY_printPosAndDir>
 168:	80 91 e9 01 	lds	r24, 0x01E9
 16c:	88 23       	and	r24, r24
 16e:	a1 f3       	breq	.-24     	; 0x158 <main+0x50>
 170:	80 91 06 01 	lds	r24, 0x0106
 174:	81 30       	cpi	r24, 0x01	; 1
 176:	49 f0       	breq	.+18     	; 0x18a <main+0x82>
 178:	82 30       	cpi	r24, 0x02	; 2
 17a:	71 f7       	brne	.-36     	; 0x158 <main+0x50>
 17c:	89 e7       	ldi	r24, 0x79	; 121
 17e:	a3 d0       	rcall	.+326    	; 0x2c6 <JOY_updatePosition>
 180:	88 e7       	ldi	r24, 0x78	; 120
 182:	90 d0       	rcall	.+288    	; 0x2a4 <JOY_requestCurrentPosition>
 184:	c0 93 06 01 	sts	0x0106, r28
 188:	e7 cf       	rjmp	.-50     	; 0x158 <main+0x50>
 18a:	88 e7       	ldi	r24, 0x78	; 120
 18c:	9c d0       	rcall	.+312    	; 0x2c6 <JOY_updatePosition>
 18e:	89 e7       	ldi	r24, 0x79	; 121
 190:	89 d0       	rcall	.+274    	; 0x2a4 <JOY_requestCurrentPosition>
 192:	80 91 06 01 	lds	r24, 0x0106
 196:	8f 5f       	subi	r24, 0xFF	; 255
 198:	80 93 06 01 	sts	0x0106, r24
 19c:	dd cf       	rjmp	.-70     	; 0x158 <main+0x50>

0000019e <enableXMEM>:
 19e:	95 b7       	in	r25, 0x35	; 53
 1a0:	90 68       	ori	r25, 0x80	; 128
 1a2:	95 bf       	out	0x35, r25	; 53
 1a4:	96 b7       	in	r25, 0x36	; 54
 1a6:	98 60       	ori	r25, 0x08	; 8
 1a8:	96 bf       	out	0x36, r25	; 54
 1aa:	88 23       	and	r24, r24
 1ac:	19 f0       	breq	.+6      	; 0x1b4 <enableXMEM+0x16>
 1ae:	80 b7       	in	r24, 0x30	; 48
 1b0:	80 62       	ori	r24, 0x20	; 32
 1b2:	80 bf       	out	0x30, r24	; 48
 1b4:	08 95       	ret

000001b6 <readFromAddress>:
 1b6:	fc 01       	movw	r30, r24
 1b8:	80 81       	ld	r24, Z
 1ba:	08 95       	ret

000001bc <saveToAddress>:
 1bc:	fc 01       	movw	r30, r24
 1be:	60 83       	st	Z, r22
 1c0:	08 95       	ret

000001c2 <JOY_getPosition>:
 1c2:	cf 93       	push	r28
 1c4:	df 93       	push	r29
 1c6:	cd b7       	in	r28, 0x3d	; 61
 1c8:	de b7       	in	r29, 0x3e	; 62
 1ca:	28 97       	sbiw	r28, 0x08	; 8
 1cc:	0f b6       	in	r0, 0x3f	; 63
 1ce:	f8 94       	cli
 1d0:	de bf       	out	0x3e, r29	; 62
 1d2:	0f be       	out	0x3f, r0	; 63
 1d4:	cd bf       	out	0x3d, r28	; 61
 1d6:	80 91 07 01 	lds	r24, 0x0107
 1da:	60 91 07 01 	lds	r22, 0x0107
 1de:	20 91 ed 01 	lds	r18, 0x01ED
 1e2:	30 91 ee 01 	lds	r19, 0x01EE
 1e6:	28 1b       	sub	r18, r24
 1e8:	31 09       	sbc	r19, r1
 1ea:	44 e6       	ldi	r20, 0x64	; 100
 1ec:	42 9f       	mul	r20, r18
 1ee:	c0 01       	movw	r24, r0
 1f0:	43 9f       	mul	r20, r19
 1f2:	90 0d       	add	r25, r0
 1f4:	11 24       	eor	r1, r1
 1f6:	70 e0       	ldi	r23, 0x00	; 0
 1f8:	e2 d1       	rcall	.+964    	; 0x5be <__divmodhi4>
 1fa:	70 93 f2 01 	sts	0x01F2, r23
 1fe:	60 93 f1 01 	sts	0x01F1, r22
 202:	80 91 07 01 	lds	r24, 0x0107
 206:	60 91 07 01 	lds	r22, 0x0107
 20a:	20 91 ef 01 	lds	r18, 0x01EF
 20e:	30 91 f0 01 	lds	r19, 0x01F0
 212:	28 1b       	sub	r18, r24
 214:	31 09       	sbc	r19, r1
 216:	42 9f       	mul	r20, r18
 218:	c0 01       	movw	r24, r0
 21a:	43 9f       	mul	r20, r19
 21c:	90 0d       	add	r25, r0
 21e:	11 24       	eor	r1, r1
 220:	70 e0       	ldi	r23, 0x00	; 0
 222:	cd d1       	rcall	.+922    	; 0x5be <__divmodhi4>
 224:	70 93 f4 01 	sts	0x01F4, r23
 228:	60 93 f3 01 	sts	0x01F3, r22
 22c:	88 e0       	ldi	r24, 0x08	; 8
 22e:	ed ee       	ldi	r30, 0xED	; 237
 230:	f1 e0       	ldi	r31, 0x01	; 1
 232:	de 01       	movw	r26, r28
 234:	11 96       	adiw	r26, 0x01	; 1
 236:	01 90       	ld	r0, Z+
 238:	0d 92       	st	X+, r0
 23a:	8a 95       	dec	r24
 23c:	e1 f7       	brne	.-8      	; 0x236 <JOY_getPosition+0x74>
 23e:	29 81       	ldd	r18, Y+1	; 0x01
 240:	3a 81       	ldd	r19, Y+2	; 0x02
 242:	4b 81       	ldd	r20, Y+3	; 0x03
 244:	5c 81       	ldd	r21, Y+4	; 0x04
 246:	6d 81       	ldd	r22, Y+5	; 0x05
 248:	7e 81       	ldd	r23, Y+6	; 0x06
 24a:	8f 81       	ldd	r24, Y+7	; 0x07
 24c:	98 85       	ldd	r25, Y+8	; 0x08
 24e:	28 96       	adiw	r28, 0x08	; 8
 250:	0f b6       	in	r0, 0x3f	; 63
 252:	f8 94       	cli
 254:	de bf       	out	0x3e, r29	; 62
 256:	0f be       	out	0x3f, r0	; 63
 258:	cd bf       	out	0x3d, r28	; 61
 25a:	df 91       	pop	r29
 25c:	cf 91       	pop	r28
 25e:	08 95       	ret

00000260 <JOY_calculateDirection>:
 260:	b0 df       	rcall	.-160    	; 0x1c2 <JOY_getPosition>
 262:	80 91 f1 01 	lds	r24, 0x01F1
 266:	90 91 f2 01 	lds	r25, 0x01F2
 26a:	83 33       	cpi	r24, 0x33	; 51
 26c:	91 05       	cpc	r25, r1
 26e:	14 f0       	brlt	.+4      	; 0x274 <JOY_calculateDirection+0x14>
 270:	83 e0       	ldi	r24, 0x03	; 3
 272:	12 c0       	rjmp	.+36     	; 0x298 <JOY_calculateDirection+0x38>
 274:	8e 3c       	cpi	r24, 0xCE	; 206
 276:	9f 4f       	sbci	r25, 0xFF	; 255
 278:	14 f4       	brge	.+4      	; 0x27e <JOY_calculateDirection+0x1e>
 27a:	84 e0       	ldi	r24, 0x04	; 4
 27c:	0d c0       	rjmp	.+26     	; 0x298 <JOY_calculateDirection+0x38>
 27e:	80 91 f3 01 	lds	r24, 0x01F3
 282:	90 91 f4 01 	lds	r25, 0x01F4
 286:	83 33       	cpi	r24, 0x33	; 51
 288:	91 05       	cpc	r25, r1
 28a:	14 f0       	brlt	.+4      	; 0x290 <JOY_calculateDirection+0x30>
 28c:	81 e0       	ldi	r24, 0x01	; 1
 28e:	04 c0       	rjmp	.+8      	; 0x298 <JOY_calculateDirection+0x38>
 290:	8e 3c       	cpi	r24, 0xCE	; 206
 292:	9f 4f       	sbci	r25, 0xFF	; 255
 294:	24 f4       	brge	.+8      	; 0x29e <JOY_calculateDirection+0x3e>
 296:	82 e0       	ldi	r24, 0x02	; 2
 298:	80 93 ec 01 	sts	0x01EC, r24
 29c:	08 95       	ret
 29e:	10 92 ec 01 	sts	0x01EC, r1
 2a2:	08 95       	ret

000002a4 <JOY_requestCurrentPosition>:
 2a4:	88 37       	cpi	r24, 0x78	; 120
 2a6:	31 f4       	brne	.+12     	; 0x2b4 <JOY_requestCurrentPosition+0x10>
 2a8:	60 91 0d 01 	lds	r22, 0x010D
 2ac:	70 91 0e 01 	lds	r23, 0x010E
 2b0:	82 e0       	ldi	r24, 0x02	; 2
 2b2:	07 c0       	rjmp	.+14     	; 0x2c2 <JOY_requestCurrentPosition+0x1e>
 2b4:	89 37       	cpi	r24, 0x79	; 121
 2b6:	31 f4       	brne	.+12     	; 0x2c4 <JOY_requestCurrentPosition+0x20>
 2b8:	60 91 0d 01 	lds	r22, 0x010D
 2bc:	70 91 0e 01 	lds	r23, 0x010E
 2c0:	81 e0       	ldi	r24, 0x01	; 1
 2c2:	61 c1       	rjmp	.+706    	; 0x586 <ADC_request>
 2c4:	08 95       	ret

000002c6 <JOY_updatePosition>:
 2c6:	88 37       	cpi	r24, 0x78	; 120
 2c8:	59 f4       	brne	.+22     	; 0x2e0 <JOY_updatePosition+0x1a>
 2ca:	80 91 0d 01 	lds	r24, 0x010D
 2ce:	90 91 0e 01 	lds	r25, 0x010E
 2d2:	74 d1       	rcall	.+744    	; 0x5bc <ADC_read>
 2d4:	90 e0       	ldi	r25, 0x00	; 0
 2d6:	90 93 ee 01 	sts	0x01EE, r25
 2da:	80 93 ed 01 	sts	0x01ED, r24
 2de:	0c c0       	rjmp	.+24     	; 0x2f8 <JOY_updatePosition+0x32>
 2e0:	89 37       	cpi	r24, 0x79	; 121
 2e2:	51 f4       	brne	.+20     	; 0x2f8 <JOY_updatePosition+0x32>
 2e4:	80 91 0d 01 	lds	r24, 0x010D
 2e8:	90 91 0e 01 	lds	r25, 0x010E
 2ec:	67 d1       	rcall	.+718    	; 0x5bc <ADC_read>
 2ee:	90 e0       	ldi	r25, 0x00	; 0
 2f0:	90 93 f0 01 	sts	0x01F0, r25
 2f4:	80 93 ef 01 	sts	0x01EF, r24
 2f8:	64 df       	rcall	.-312    	; 0x1c2 <JOY_getPosition>
 2fa:	b2 cf       	rjmp	.-156    	; 0x260 <JOY_calculateDirection>

000002fc <JOY_calibrate>:
 2fc:	cf 93       	push	r28
 2fe:	df 93       	push	r29
 300:	8f e0       	ldi	r24, 0x0F	; 15
 302:	91 e0       	ldi	r25, 0x01	; 1
 304:	de d1       	rcall	.+956    	; 0x6c2 <puts>
 306:	2f ef       	ldi	r18, 0xFF	; 255
 308:	3f ef       	ldi	r19, 0xFF	; 255
 30a:	82 e0       	ldi	r24, 0x02	; 2
 30c:	21 50       	subi	r18, 0x01	; 1
 30e:	30 40       	sbci	r19, 0x00	; 0
 310:	80 40       	sbci	r24, 0x00	; 0
 312:	e1 f7       	brne	.-8      	; 0x30c <JOY_calibrate+0x10>
 314:	00 c0       	rjmp	.+0      	; 0x316 <JOY_calibrate+0x1a>
 316:	00 c0       	rjmp	.+0      	; 0x318 <JOY_calibrate+0x1c>
 318:	c4 e1       	ldi	r28, 0x14	; 20
 31a:	d0 e0       	ldi	r29, 0x00	; 0
 31c:	60 91 0d 01 	lds	r22, 0x010D
 320:	70 91 0e 01 	lds	r23, 0x010E
 324:	82 e0       	ldi	r24, 0x02	; 2
 326:	2f d1       	rcall	.+606    	; 0x586 <ADC_request>
 328:	80 e0       	ldi	r24, 0x00	; 0
 32a:	90 ef       	ldi	r25, 0xF0	; 240
 32c:	01 97       	sbiw	r24, 0x01	; 1
 32e:	f1 f7       	brne	.-4      	; 0x32c <JOY_calibrate+0x30>
 330:	80 91 0d 01 	lds	r24, 0x010D
 334:	90 91 0e 01 	lds	r25, 0x010E
 338:	41 d1       	rcall	.+642    	; 0x5bc <ADC_read>
 33a:	90 91 0c 01 	lds	r25, 0x010C
 33e:	98 17       	cp	r25, r24
 340:	10 f4       	brcc	.+4      	; 0x346 <JOY_calibrate+0x4a>
 342:	80 93 0c 01 	sts	0x010C, r24
 346:	21 97       	sbiw	r28, 0x01	; 1
 348:	20 97       	sbiw	r28, 0x00	; 0
 34a:	41 f7       	brne	.-48     	; 0x31c <JOY_calibrate+0x20>
 34c:	85 e2       	ldi	r24, 0x25	; 37
 34e:	91 e0       	ldi	r25, 0x01	; 1
 350:	b8 d1       	rcall	.+880    	; 0x6c2 <puts>
 352:	9f ef       	ldi	r25, 0xFF	; 255
 354:	2f ef       	ldi	r18, 0xFF	; 255
 356:	32 e0       	ldi	r19, 0x02	; 2
 358:	91 50       	subi	r25, 0x01	; 1
 35a:	20 40       	sbci	r18, 0x00	; 0
 35c:	30 40       	sbci	r19, 0x00	; 0
 35e:	e1 f7       	brne	.-8      	; 0x358 <JOY_calibrate+0x5c>
 360:	00 c0       	rjmp	.+0      	; 0x362 <JOY_calibrate+0x66>
 362:	00 c0       	rjmp	.+0      	; 0x364 <JOY_calibrate+0x68>
 364:	c4 e1       	ldi	r28, 0x14	; 20
 366:	d0 e0       	ldi	r29, 0x00	; 0
 368:	60 91 0d 01 	lds	r22, 0x010D
 36c:	70 91 0e 01 	lds	r23, 0x010E
 370:	82 e0       	ldi	r24, 0x02	; 2
 372:	09 d1       	rcall	.+530    	; 0x586 <ADC_request>
 374:	80 e0       	ldi	r24, 0x00	; 0
 376:	90 ef       	ldi	r25, 0xF0	; 240
 378:	01 97       	sbiw	r24, 0x01	; 1
 37a:	f1 f7       	brne	.-4      	; 0x378 <JOY_calibrate+0x7c>
 37c:	80 91 0d 01 	lds	r24, 0x010D
 380:	90 91 0e 01 	lds	r25, 0x010E
 384:	1b d1       	rcall	.+566    	; 0x5bc <ADC_read>
 386:	90 91 0b 01 	lds	r25, 0x010B
 38a:	89 17       	cp	r24, r25
 38c:	10 f4       	brcc	.+4      	; 0x392 <JOY_calibrate+0x96>
 38e:	80 93 0b 01 	sts	0x010B, r24
 392:	21 97       	sbiw	r28, 0x01	; 1
 394:	20 97       	sbiw	r28, 0x00	; 0
 396:	41 f7       	brne	.-48     	; 0x368 <JOY_calibrate+0x6c>
 398:	8a e3       	ldi	r24, 0x3A	; 58
 39a:	91 e0       	ldi	r25, 0x01	; 1
 39c:	92 d1       	rcall	.+804    	; 0x6c2 <puts>
 39e:	9f ef       	ldi	r25, 0xFF	; 255
 3a0:	2f ef       	ldi	r18, 0xFF	; 255
 3a2:	32 e0       	ldi	r19, 0x02	; 2
 3a4:	91 50       	subi	r25, 0x01	; 1
 3a6:	20 40       	sbci	r18, 0x00	; 0
 3a8:	30 40       	sbci	r19, 0x00	; 0
 3aa:	e1 f7       	brne	.-8      	; 0x3a4 <JOY_calibrate+0xa8>
 3ac:	00 c0       	rjmp	.+0      	; 0x3ae <JOY_calibrate+0xb2>
 3ae:	00 c0       	rjmp	.+0      	; 0x3b0 <JOY_calibrate+0xb4>
 3b0:	c4 e1       	ldi	r28, 0x14	; 20
 3b2:	d0 e0       	ldi	r29, 0x00	; 0
 3b4:	60 91 0d 01 	lds	r22, 0x010D
 3b8:	70 91 0e 01 	lds	r23, 0x010E
 3bc:	81 e0       	ldi	r24, 0x01	; 1
 3be:	e3 d0       	rcall	.+454    	; 0x586 <ADC_request>
 3c0:	80 e0       	ldi	r24, 0x00	; 0
 3c2:	90 ef       	ldi	r25, 0xF0	; 240
 3c4:	01 97       	sbiw	r24, 0x01	; 1
 3c6:	f1 f7       	brne	.-4      	; 0x3c4 <JOY_calibrate+0xc8>
 3c8:	80 91 0d 01 	lds	r24, 0x010D
 3cc:	90 91 0e 01 	lds	r25, 0x010E
 3d0:	f5 d0       	rcall	.+490    	; 0x5bc <ADC_read>
 3d2:	90 91 0a 01 	lds	r25, 0x010A
 3d6:	98 17       	cp	r25, r24
 3d8:	10 f4       	brcc	.+4      	; 0x3de <JOY_calibrate+0xe2>
 3da:	80 93 0a 01 	sts	0x010A, r24
 3de:	21 97       	sbiw	r28, 0x01	; 1
 3e0:	20 97       	sbiw	r28, 0x00	; 0
 3e2:	41 f7       	brne	.-48     	; 0x3b4 <JOY_calibrate+0xb8>
 3e4:	86 e4       	ldi	r24, 0x46	; 70
 3e6:	91 e0       	ldi	r25, 0x01	; 1
 3e8:	6c d1       	rcall	.+728    	; 0x6c2 <puts>
 3ea:	9f ef       	ldi	r25, 0xFF	; 255
 3ec:	2f ef       	ldi	r18, 0xFF	; 255
 3ee:	32 e0       	ldi	r19, 0x02	; 2
 3f0:	91 50       	subi	r25, 0x01	; 1
 3f2:	20 40       	sbci	r18, 0x00	; 0
 3f4:	30 40       	sbci	r19, 0x00	; 0
 3f6:	e1 f7       	brne	.-8      	; 0x3f0 <JOY_calibrate+0xf4>
 3f8:	00 c0       	rjmp	.+0      	; 0x3fa <JOY_calibrate+0xfe>
 3fa:	00 c0       	rjmp	.+0      	; 0x3fc <JOY_calibrate+0x100>
 3fc:	c4 e1       	ldi	r28, 0x14	; 20
 3fe:	d0 e0       	ldi	r29, 0x00	; 0
 400:	60 91 0d 01 	lds	r22, 0x010D
 404:	70 91 0e 01 	lds	r23, 0x010E
 408:	81 e0       	ldi	r24, 0x01	; 1
 40a:	bd d0       	rcall	.+378    	; 0x586 <ADC_request>
 40c:	80 e0       	ldi	r24, 0x00	; 0
 40e:	90 ef       	ldi	r25, 0xF0	; 240
 410:	01 97       	sbiw	r24, 0x01	; 1
 412:	f1 f7       	brne	.-4      	; 0x410 <JOY_calibrate+0x114>
 414:	80 91 0d 01 	lds	r24, 0x010D
 418:	90 91 0e 01 	lds	r25, 0x010E
 41c:	cf d0       	rcall	.+414    	; 0x5bc <ADC_read>
 41e:	90 91 09 01 	lds	r25, 0x0109
 422:	89 17       	cp	r24, r25
 424:	10 f4       	brcc	.+4      	; 0x42a <JOY_calibrate+0x12e>
 426:	80 93 09 01 	sts	0x0109, r24
 42a:	21 97       	sbiw	r28, 0x01	; 1
 42c:	20 97       	sbiw	r28, 0x00	; 0
 42e:	41 f7       	brne	.-48     	; 0x400 <JOY_calibrate+0x104>
 430:	30 91 09 01 	lds	r19, 0x0109
 434:	20 91 0a 01 	lds	r18, 0x010A
 438:	90 91 0b 01 	lds	r25, 0x010B
 43c:	80 91 0c 01 	lds	r24, 0x010C
 440:	1f 92       	push	r1
 442:	3f 93       	push	r19
 444:	1f 92       	push	r1
 446:	2f 93       	push	r18
 448:	1f 92       	push	r1
 44a:	9f 93       	push	r25
 44c:	1f 92       	push	r1
 44e:	8f 93       	push	r24
 450:	84 e5       	ldi	r24, 0x54	; 84
 452:	91 e0       	ldi	r25, 0x01	; 1
 454:	9f 93       	push	r25
 456:	8f 93       	push	r24
 458:	23 d1       	rcall	.+582    	; 0x6a0 <printf>
 45a:	80 91 0a 01 	lds	r24, 0x010A
 45e:	20 91 09 01 	lds	r18, 0x0109
 462:	90 e0       	ldi	r25, 0x00	; 0
 464:	82 1b       	sub	r24, r18
 466:	91 09       	sbc	r25, r1
 468:	2d b7       	in	r18, 0x3d	; 61
 46a:	3e b7       	in	r19, 0x3e	; 62
 46c:	26 5f       	subi	r18, 0xF6	; 246
 46e:	3f 4f       	sbci	r19, 0xFF	; 255
 470:	0f b6       	in	r0, 0x3f	; 63
 472:	f8 94       	cli
 474:	3e bf       	out	0x3e, r19	; 62
 476:	0f be       	out	0x3f, r0	; 63
 478:	2d bf       	out	0x3d, r18	; 61
 47a:	97 fd       	sbrc	r25, 7
 47c:	01 96       	adiw	r24, 0x01	; 1
 47e:	95 95       	asr	r25
 480:	87 95       	ror	r24
 482:	80 93 08 01 	sts	0x0108, r24
 486:	80 91 0c 01 	lds	r24, 0x010C
 48a:	20 91 0b 01 	lds	r18, 0x010B
 48e:	90 e0       	ldi	r25, 0x00	; 0
 490:	82 1b       	sub	r24, r18
 492:	91 09       	sbc	r25, r1
 494:	97 fd       	sbrc	r25, 7
 496:	01 96       	adiw	r24, 0x01	; 1
 498:	95 95       	asr	r25
 49a:	87 95       	ror	r24
 49c:	80 93 07 01 	sts	0x0107, r24
 4a0:	90 91 07 01 	lds	r25, 0x0107
 4a4:	80 91 08 01 	lds	r24, 0x0108
 4a8:	1f 92       	push	r1
 4aa:	9f 93       	push	r25
 4ac:	1f 92       	push	r1
 4ae:	8f 93       	push	r24
 4b0:	8e e7       	ldi	r24, 0x7E	; 126
 4b2:	91 e0       	ldi	r25, 0x01	; 1
 4b4:	9f 93       	push	r25
 4b6:	8f 93       	push	r24
 4b8:	f3 d0       	rcall	.+486    	; 0x6a0 <printf>
 4ba:	0f 90       	pop	r0
 4bc:	0f 90       	pop	r0
 4be:	0f 90       	pop	r0
 4c0:	0f 90       	pop	r0
 4c2:	0f 90       	pop	r0
 4c4:	0f 90       	pop	r0
 4c6:	df 91       	pop	r29
 4c8:	cf 91       	pop	r28
 4ca:	08 95       	ret

000004cc <JOY_printPosAndDir>:
 4cc:	cf 93       	push	r28
 4ce:	df 93       	push	r29
 4d0:	78 de       	rcall	.-784    	; 0x1c2 <JOY_getPosition>
 4d2:	c6 de       	rcall	.-628    	; 0x260 <JOY_calculateDirection>
 4d4:	80 91 ec 01 	lds	r24, 0x01EC
 4d8:	82 30       	cpi	r24, 0x02	; 2
 4da:	79 f0       	breq	.+30     	; 0x4fa <JOY_printPosAndDir+0x2e>
 4dc:	38 f4       	brcc	.+14     	; 0x4ec <JOY_printPosAndDir+0x20>
 4de:	88 23       	and	r24, r24
 4e0:	91 f0       	breq	.+36     	; 0x506 <__stack+0x7>
 4e2:	81 30       	cpi	r24, 0x01	; 1
 4e4:	91 f4       	brne	.+36     	; 0x50a <__stack+0xb>
 4e6:	ca ea       	ldi	r28, 0xAA	; 170
 4e8:	d1 e0       	ldi	r29, 0x01	; 1
 4ea:	0f c0       	rjmp	.+30     	; 0x50a <__stack+0xb>
 4ec:	83 30       	cpi	r24, 0x03	; 3
 4ee:	41 f0       	breq	.+16     	; 0x500 <__stack+0x1>
 4f0:	84 30       	cpi	r24, 0x04	; 4
 4f2:	59 f4       	brne	.+22     	; 0x50a <__stack+0xb>
 4f4:	c8 eb       	ldi	r28, 0xB8	; 184
 4f6:	d1 e0       	ldi	r29, 0x01	; 1
 4f8:	08 c0       	rjmp	.+16     	; 0x50a <__stack+0xb>
 4fa:	cd ea       	ldi	r28, 0xAD	; 173
 4fc:	d1 e0       	ldi	r29, 0x01	; 1
 4fe:	05 c0       	rjmp	.+10     	; 0x50a <__stack+0xb>
 500:	c2 eb       	ldi	r28, 0xB2	; 178
 502:	d1 e0       	ldi	r29, 0x01	; 1
 504:	02 c0       	rjmp	.+4      	; 0x50a <__stack+0xb>
 506:	c3 ea       	ldi	r28, 0xA3	; 163
 508:	d1 e0       	ldi	r29, 0x01	; 1
 50a:	80 91 f4 01 	lds	r24, 0x01F4
 50e:	8f 93       	push	r24
 510:	80 91 f3 01 	lds	r24, 0x01F3
 514:	8f 93       	push	r24
 516:	80 91 f2 01 	lds	r24, 0x01F2
 51a:	8f 93       	push	r24
 51c:	80 91 f1 01 	lds	r24, 0x01F1
 520:	8f 93       	push	r24
 522:	df 93       	push	r29
 524:	cf 93       	push	r28
 526:	8d eb       	ldi	r24, 0xBD	; 189
 528:	91 e0       	ldi	r25, 0x01	; 1
 52a:	9f 93       	push	r25
 52c:	8f 93       	push	r24
 52e:	b8 d0       	rcall	.+368    	; 0x6a0 <printf>
 530:	8d b7       	in	r24, 0x3d	; 61
 532:	9e b7       	in	r25, 0x3e	; 62
 534:	08 96       	adiw	r24, 0x08	; 8
 536:	0f b6       	in	r0, 0x3f	; 63
 538:	f8 94       	cli
 53a:	9e bf       	out	0x3e, r25	; 62
 53c:	0f be       	out	0x3f, r0	; 63
 53e:	8d bf       	out	0x3d, r24	; 61
 540:	df 91       	pop	r29
 542:	cf 91       	pop	r28
 544:	08 95       	ret

00000546 <uartSend>:
 546:	5d 9b       	sbis	0x0b, 5	; 11
 548:	fe cf       	rjmp	.-4      	; 0x546 <uartSend>
 54a:	8c b9       	out	0x0c, r24	; 12
 54c:	08 95       	ret

0000054e <uartReceive>:
 54e:	5f 9b       	sbis	0x0b, 7	; 11
 550:	fe cf       	rjmp	.-4      	; 0x54e <uartReceive>
 552:	8c b1       	in	r24, 0x0c	; 12
 554:	08 95       	ret

00000556 <uartInit>:
 556:	ef 92       	push	r14
 558:	ff 92       	push	r15
 55a:	0f 93       	push	r16
 55c:	1f 93       	push	r17
 55e:	bb 27       	eor	r27, r27
 560:	a1 2f       	mov	r26, r17
 562:	90 2f       	mov	r25, r16
 564:	8f 2d       	mov	r24, r15
 566:	80 bd       	out	0x20, r24	; 32
 568:	e9 b8       	out	0x09, r14	; 9
 56a:	88 e1       	ldi	r24, 0x18	; 24
 56c:	8a b9       	out	0x0a, r24	; 10
 56e:	57 9a       	sbi	0x0a, 7	; 10
 570:	8e e8       	ldi	r24, 0x8E	; 142
 572:	80 bd       	out	0x20, r24	; 32
 574:	67 ea       	ldi	r22, 0xA7	; 167
 576:	72 e0       	ldi	r23, 0x02	; 2
 578:	83 ea       	ldi	r24, 0xA3	; 163
 57a:	92 e0       	ldi	r25, 0x02	; 2
 57c:	1f 91       	pop	r17
 57e:	0f 91       	pop	r16
 580:	ff 90       	pop	r15
 582:	ef 90       	pop	r14
 584:	43 c0       	rjmp	.+134    	; 0x60c <fdevopen>

00000586 <ADC_request>:
 586:	28 2f       	mov	r18, r24
 588:	cb 01       	movw	r24, r22
 58a:	22 30       	cpi	r18, 0x02	; 2
 58c:	59 f0       	breq	.+22     	; 0x5a4 <ADC_request+0x1e>
 58e:	20 f4       	brcc	.+8      	; 0x598 <ADC_request+0x12>
 590:	21 30       	cpi	r18, 0x01	; 1
 592:	61 f4       	brne	.+24     	; 0x5ac <ADC_request+0x26>
 594:	64 e0       	ldi	r22, 0x04	; 4
 596:	09 c0       	rjmp	.+18     	; 0x5aa <ADC_request+0x24>
 598:	23 30       	cpi	r18, 0x03	; 3
 59a:	31 f0       	breq	.+12     	; 0x5a8 <ADC_request+0x22>
 59c:	24 30       	cpi	r18, 0x04	; 4
 59e:	31 f4       	brne	.+12     	; 0x5ac <ADC_request+0x26>
 5a0:	67 e0       	ldi	r22, 0x07	; 7
 5a2:	03 c0       	rjmp	.+6      	; 0x5aa <ADC_request+0x24>
 5a4:	65 e0       	ldi	r22, 0x05	; 5
 5a6:	01 c0       	rjmp	.+2      	; 0x5aa <ADC_request+0x24>
 5a8:	66 e0       	ldi	r22, 0x06	; 6
 5aa:	08 ce       	rjmp	.-1008   	; 0x1bc <saveToAddress>
 5ac:	83 ed       	ldi	r24, 0xD3	; 211
 5ae:	91 e0       	ldi	r25, 0x01	; 1
 5b0:	9f 93       	push	r25
 5b2:	8f 93       	push	r24
 5b4:	75 d0       	rcall	.+234    	; 0x6a0 <printf>
 5b6:	0f 90       	pop	r0
 5b8:	0f 90       	pop	r0
 5ba:	08 95       	ret

000005bc <ADC_read>:
 5bc:	fc cd       	rjmp	.-1032   	; 0x1b6 <readFromAddress>

000005be <__divmodhi4>:
 5be:	97 fb       	bst	r25, 7
 5c0:	07 2e       	mov	r0, r23
 5c2:	16 f4       	brtc	.+4      	; 0x5c8 <__divmodhi4+0xa>
 5c4:	00 94       	com	r0
 5c6:	06 d0       	rcall	.+12     	; 0x5d4 <__divmodhi4_neg1>
 5c8:	77 fd       	sbrc	r23, 7
 5ca:	08 d0       	rcall	.+16     	; 0x5dc <__divmodhi4_neg2>
 5cc:	0b d0       	rcall	.+22     	; 0x5e4 <__udivmodhi4>
 5ce:	07 fc       	sbrc	r0, 7
 5d0:	05 d0       	rcall	.+10     	; 0x5dc <__divmodhi4_neg2>
 5d2:	3e f4       	brtc	.+14     	; 0x5e2 <__divmodhi4_exit>

000005d4 <__divmodhi4_neg1>:
 5d4:	90 95       	com	r25
 5d6:	81 95       	neg	r24
 5d8:	9f 4f       	sbci	r25, 0xFF	; 255
 5da:	08 95       	ret

000005dc <__divmodhi4_neg2>:
 5dc:	70 95       	com	r23
 5de:	61 95       	neg	r22
 5e0:	7f 4f       	sbci	r23, 0xFF	; 255

000005e2 <__divmodhi4_exit>:
 5e2:	08 95       	ret

000005e4 <__udivmodhi4>:
 5e4:	aa 1b       	sub	r26, r26
 5e6:	bb 1b       	sub	r27, r27
 5e8:	51 e1       	ldi	r21, 0x11	; 17
 5ea:	07 c0       	rjmp	.+14     	; 0x5fa <__udivmodhi4_ep>

000005ec <__udivmodhi4_loop>:
 5ec:	aa 1f       	adc	r26, r26
 5ee:	bb 1f       	adc	r27, r27
 5f0:	a6 17       	cp	r26, r22
 5f2:	b7 07       	cpc	r27, r23
 5f4:	10 f0       	brcs	.+4      	; 0x5fa <__udivmodhi4_ep>
 5f6:	a6 1b       	sub	r26, r22
 5f8:	b7 0b       	sbc	r27, r23

000005fa <__udivmodhi4_ep>:
 5fa:	88 1f       	adc	r24, r24
 5fc:	99 1f       	adc	r25, r25
 5fe:	5a 95       	dec	r21
 600:	a9 f7       	brne	.-22     	; 0x5ec <__udivmodhi4_loop>
 602:	80 95       	com	r24
 604:	90 95       	com	r25
 606:	bc 01       	movw	r22, r24
 608:	cd 01       	movw	r24, r26
 60a:	08 95       	ret

0000060c <fdevopen>:
 60c:	0f 93       	push	r16
 60e:	1f 93       	push	r17
 610:	cf 93       	push	r28
 612:	df 93       	push	r29
 614:	ec 01       	movw	r28, r24
 616:	8b 01       	movw	r16, r22
 618:	00 97       	sbiw	r24, 0x00	; 0
 61a:	31 f4       	brne	.+12     	; 0x628 <fdevopen+0x1c>
 61c:	61 15       	cp	r22, r1
 61e:	71 05       	cpc	r23, r1
 620:	19 f4       	brne	.+6      	; 0x628 <fdevopen+0x1c>
 622:	80 e0       	ldi	r24, 0x00	; 0
 624:	90 e0       	ldi	r25, 0x00	; 0
 626:	37 c0       	rjmp	.+110    	; 0x696 <fdevopen+0x8a>
 628:	6e e0       	ldi	r22, 0x0E	; 14
 62a:	70 e0       	ldi	r23, 0x00	; 0
 62c:	81 e0       	ldi	r24, 0x01	; 1
 62e:	90 e0       	ldi	r25, 0x00	; 0
 630:	38 d2       	rcall	.+1136   	; 0xaa2 <calloc>
 632:	fc 01       	movw	r30, r24
 634:	00 97       	sbiw	r24, 0x00	; 0
 636:	a9 f3       	breq	.-22     	; 0x622 <fdevopen+0x16>
 638:	80 e8       	ldi	r24, 0x80	; 128
 63a:	83 83       	std	Z+3, r24	; 0x03
 63c:	01 15       	cp	r16, r1
 63e:	11 05       	cpc	r17, r1
 640:	71 f0       	breq	.+28     	; 0x65e <fdevopen+0x52>
 642:	13 87       	std	Z+11, r17	; 0x0b
 644:	02 87       	std	Z+10, r16	; 0x0a
 646:	81 e8       	ldi	r24, 0x81	; 129
 648:	83 83       	std	Z+3, r24	; 0x03
 64a:	80 91 f5 01 	lds	r24, 0x01F5
 64e:	90 91 f6 01 	lds	r25, 0x01F6
 652:	89 2b       	or	r24, r25
 654:	21 f4       	brne	.+8      	; 0x65e <fdevopen+0x52>
 656:	f0 93 f6 01 	sts	0x01F6, r31
 65a:	e0 93 f5 01 	sts	0x01F5, r30
 65e:	20 97       	sbiw	r28, 0x00	; 0
 660:	c9 f0       	breq	.+50     	; 0x694 <fdevopen+0x88>
 662:	d1 87       	std	Z+9, r29	; 0x09
 664:	c0 87       	std	Z+8, r28	; 0x08
 666:	83 81       	ldd	r24, Z+3	; 0x03
 668:	82 60       	ori	r24, 0x02	; 2
 66a:	83 83       	std	Z+3, r24	; 0x03
 66c:	80 91 f7 01 	lds	r24, 0x01F7
 670:	90 91 f8 01 	lds	r25, 0x01F8
 674:	89 2b       	or	r24, r25
 676:	71 f4       	brne	.+28     	; 0x694 <fdevopen+0x88>
 678:	f0 93 f8 01 	sts	0x01F8, r31
 67c:	e0 93 f7 01 	sts	0x01F7, r30
 680:	80 91 f9 01 	lds	r24, 0x01F9
 684:	90 91 fa 01 	lds	r25, 0x01FA
 688:	89 2b       	or	r24, r25
 68a:	21 f4       	brne	.+8      	; 0x694 <fdevopen+0x88>
 68c:	f0 93 fa 01 	sts	0x01FA, r31
 690:	e0 93 f9 01 	sts	0x01F9, r30
 694:	cf 01       	movw	r24, r30
 696:	df 91       	pop	r29
 698:	cf 91       	pop	r28
 69a:	1f 91       	pop	r17
 69c:	0f 91       	pop	r16
 69e:	08 95       	ret

000006a0 <printf>:
 6a0:	a0 e0       	ldi	r26, 0x00	; 0
 6a2:	b0 e0       	ldi	r27, 0x00	; 0
 6a4:	e5 e5       	ldi	r30, 0x55	; 85
 6a6:	f3 e0       	ldi	r31, 0x03	; 3
 6a8:	fa c3       	rjmp	.+2036   	; 0xe9e <__prologue_saves__+0x20>
 6aa:	fe 01       	movw	r30, r28
 6ac:	35 96       	adiw	r30, 0x05	; 5
 6ae:	61 91       	ld	r22, Z+
 6b0:	71 91       	ld	r23, Z+
 6b2:	af 01       	movw	r20, r30
 6b4:	80 91 f7 01 	lds	r24, 0x01F7
 6b8:	90 91 f8 01 	lds	r25, 0x01F8
 6bc:	2f d0       	rcall	.+94     	; 0x71c <vfprintf>
 6be:	e2 e0       	ldi	r30, 0x02	; 2
 6c0:	0a c4       	rjmp	.+2068   	; 0xed6 <__epilogue_restores__+0x20>

000006c2 <puts>:
 6c2:	0f 93       	push	r16
 6c4:	1f 93       	push	r17
 6c6:	cf 93       	push	r28
 6c8:	df 93       	push	r29
 6ca:	e0 91 f7 01 	lds	r30, 0x01F7
 6ce:	f0 91 f8 01 	lds	r31, 0x01F8
 6d2:	23 81       	ldd	r18, Z+3	; 0x03
 6d4:	21 ff       	sbrs	r18, 1
 6d6:	1b c0       	rjmp	.+54     	; 0x70e <puts+0x4c>
 6d8:	ec 01       	movw	r28, r24
 6da:	00 e0       	ldi	r16, 0x00	; 0
 6dc:	10 e0       	ldi	r17, 0x00	; 0
 6de:	89 91       	ld	r24, Y+
 6e0:	60 91 f7 01 	lds	r22, 0x01F7
 6e4:	70 91 f8 01 	lds	r23, 0x01F8
 6e8:	db 01       	movw	r26, r22
 6ea:	18 96       	adiw	r26, 0x08	; 8
 6ec:	ed 91       	ld	r30, X+
 6ee:	fc 91       	ld	r31, X
 6f0:	19 97       	sbiw	r26, 0x09	; 9
 6f2:	88 23       	and	r24, r24
 6f4:	31 f0       	breq	.+12     	; 0x702 <puts+0x40>
 6f6:	09 95       	icall
 6f8:	89 2b       	or	r24, r25
 6fa:	89 f3       	breq	.-30     	; 0x6de <puts+0x1c>
 6fc:	0f ef       	ldi	r16, 0xFF	; 255
 6fe:	1f ef       	ldi	r17, 0xFF	; 255
 700:	ee cf       	rjmp	.-36     	; 0x6de <puts+0x1c>
 702:	8a e0       	ldi	r24, 0x0A	; 10
 704:	09 95       	icall
 706:	89 2b       	or	r24, r25
 708:	11 f4       	brne	.+4      	; 0x70e <puts+0x4c>
 70a:	c8 01       	movw	r24, r16
 70c:	02 c0       	rjmp	.+4      	; 0x712 <puts+0x50>
 70e:	8f ef       	ldi	r24, 0xFF	; 255
 710:	9f ef       	ldi	r25, 0xFF	; 255
 712:	df 91       	pop	r29
 714:	cf 91       	pop	r28
 716:	1f 91       	pop	r17
 718:	0f 91       	pop	r16
 71a:	08 95       	ret

0000071c <vfprintf>:
 71c:	ac e0       	ldi	r26, 0x0C	; 12
 71e:	b0 e0       	ldi	r27, 0x00	; 0
 720:	e3 e9       	ldi	r30, 0x93	; 147
 722:	f3 e0       	ldi	r31, 0x03	; 3
 724:	ac c3       	rjmp	.+1880   	; 0xe7e <__prologue_saves__>
 726:	7c 01       	movw	r14, r24
 728:	6b 01       	movw	r12, r22
 72a:	8a 01       	movw	r16, r20
 72c:	fc 01       	movw	r30, r24
 72e:	17 82       	std	Z+7, r1	; 0x07
 730:	16 82       	std	Z+6, r1	; 0x06
 732:	83 81       	ldd	r24, Z+3	; 0x03
 734:	81 ff       	sbrs	r24, 1
 736:	b0 c1       	rjmp	.+864    	; 0xa98 <vfprintf+0x37c>
 738:	ce 01       	movw	r24, r28
 73a:	01 96       	adiw	r24, 0x01	; 1
 73c:	4c 01       	movw	r8, r24
 73e:	f7 01       	movw	r30, r14
 740:	93 81       	ldd	r25, Z+3	; 0x03
 742:	f6 01       	movw	r30, r12
 744:	93 fd       	sbrc	r25, 3
 746:	85 91       	lpm	r24, Z+
 748:	93 ff       	sbrs	r25, 3
 74a:	81 91       	ld	r24, Z+
 74c:	6f 01       	movw	r12, r30
 74e:	88 23       	and	r24, r24
 750:	09 f4       	brne	.+2      	; 0x754 <vfprintf+0x38>
 752:	9e c1       	rjmp	.+828    	; 0xa90 <vfprintf+0x374>
 754:	85 32       	cpi	r24, 0x25	; 37
 756:	39 f4       	brne	.+14     	; 0x766 <vfprintf+0x4a>
 758:	93 fd       	sbrc	r25, 3
 75a:	85 91       	lpm	r24, Z+
 75c:	93 ff       	sbrs	r25, 3
 75e:	81 91       	ld	r24, Z+
 760:	6f 01       	movw	r12, r30
 762:	85 32       	cpi	r24, 0x25	; 37
 764:	21 f4       	brne	.+8      	; 0x76e <vfprintf+0x52>
 766:	b7 01       	movw	r22, r14
 768:	90 e0       	ldi	r25, 0x00	; 0
 76a:	f9 d2       	rcall	.+1522   	; 0xd5e <fputc>
 76c:	e8 cf       	rjmp	.-48     	; 0x73e <vfprintf+0x22>
 76e:	51 2c       	mov	r5, r1
 770:	31 2c       	mov	r3, r1
 772:	20 e0       	ldi	r18, 0x00	; 0
 774:	20 32       	cpi	r18, 0x20	; 32
 776:	a0 f4       	brcc	.+40     	; 0x7a0 <vfprintf+0x84>
 778:	8b 32       	cpi	r24, 0x2B	; 43
 77a:	69 f0       	breq	.+26     	; 0x796 <vfprintf+0x7a>
 77c:	30 f4       	brcc	.+12     	; 0x78a <vfprintf+0x6e>
 77e:	80 32       	cpi	r24, 0x20	; 32
 780:	59 f0       	breq	.+22     	; 0x798 <vfprintf+0x7c>
 782:	83 32       	cpi	r24, 0x23	; 35
 784:	69 f4       	brne	.+26     	; 0x7a0 <vfprintf+0x84>
 786:	20 61       	ori	r18, 0x10	; 16
 788:	2c c0       	rjmp	.+88     	; 0x7e2 <vfprintf+0xc6>
 78a:	8d 32       	cpi	r24, 0x2D	; 45
 78c:	39 f0       	breq	.+14     	; 0x79c <vfprintf+0x80>
 78e:	80 33       	cpi	r24, 0x30	; 48
 790:	39 f4       	brne	.+14     	; 0x7a0 <vfprintf+0x84>
 792:	21 60       	ori	r18, 0x01	; 1
 794:	26 c0       	rjmp	.+76     	; 0x7e2 <vfprintf+0xc6>
 796:	22 60       	ori	r18, 0x02	; 2
 798:	24 60       	ori	r18, 0x04	; 4
 79a:	23 c0       	rjmp	.+70     	; 0x7e2 <vfprintf+0xc6>
 79c:	28 60       	ori	r18, 0x08	; 8
 79e:	21 c0       	rjmp	.+66     	; 0x7e2 <vfprintf+0xc6>
 7a0:	27 fd       	sbrc	r18, 7
 7a2:	27 c0       	rjmp	.+78     	; 0x7f2 <vfprintf+0xd6>
 7a4:	30 ed       	ldi	r19, 0xD0	; 208
 7a6:	38 0f       	add	r19, r24
 7a8:	3a 30       	cpi	r19, 0x0A	; 10
 7aa:	78 f4       	brcc	.+30     	; 0x7ca <vfprintf+0xae>
 7ac:	26 ff       	sbrs	r18, 6
 7ae:	06 c0       	rjmp	.+12     	; 0x7bc <vfprintf+0xa0>
 7b0:	fa e0       	ldi	r31, 0x0A	; 10
 7b2:	5f 9e       	mul	r5, r31
 7b4:	30 0d       	add	r19, r0
 7b6:	11 24       	eor	r1, r1
 7b8:	53 2e       	mov	r5, r19
 7ba:	13 c0       	rjmp	.+38     	; 0x7e2 <vfprintf+0xc6>
 7bc:	8a e0       	ldi	r24, 0x0A	; 10
 7be:	38 9e       	mul	r3, r24
 7c0:	30 0d       	add	r19, r0
 7c2:	11 24       	eor	r1, r1
 7c4:	33 2e       	mov	r3, r19
 7c6:	20 62       	ori	r18, 0x20	; 32
 7c8:	0c c0       	rjmp	.+24     	; 0x7e2 <vfprintf+0xc6>
 7ca:	8e 32       	cpi	r24, 0x2E	; 46
 7cc:	21 f4       	brne	.+8      	; 0x7d6 <vfprintf+0xba>
 7ce:	26 fd       	sbrc	r18, 6
 7d0:	5f c1       	rjmp	.+702    	; 0xa90 <vfprintf+0x374>
 7d2:	20 64       	ori	r18, 0x40	; 64
 7d4:	06 c0       	rjmp	.+12     	; 0x7e2 <vfprintf+0xc6>
 7d6:	8c 36       	cpi	r24, 0x6C	; 108
 7d8:	11 f4       	brne	.+4      	; 0x7de <vfprintf+0xc2>
 7da:	20 68       	ori	r18, 0x80	; 128
 7dc:	02 c0       	rjmp	.+4      	; 0x7e2 <vfprintf+0xc6>
 7de:	88 36       	cpi	r24, 0x68	; 104
 7e0:	41 f4       	brne	.+16     	; 0x7f2 <vfprintf+0xd6>
 7e2:	f6 01       	movw	r30, r12
 7e4:	93 fd       	sbrc	r25, 3
 7e6:	85 91       	lpm	r24, Z+
 7e8:	93 ff       	sbrs	r25, 3
 7ea:	81 91       	ld	r24, Z+
 7ec:	6f 01       	movw	r12, r30
 7ee:	81 11       	cpse	r24, r1
 7f0:	c1 cf       	rjmp	.-126    	; 0x774 <vfprintf+0x58>
 7f2:	98 2f       	mov	r25, r24
 7f4:	9f 7d       	andi	r25, 0xDF	; 223
 7f6:	95 54       	subi	r25, 0x45	; 69
 7f8:	93 30       	cpi	r25, 0x03	; 3
 7fa:	28 f4       	brcc	.+10     	; 0x806 <vfprintf+0xea>
 7fc:	0c 5f       	subi	r16, 0xFC	; 252
 7fe:	1f 4f       	sbci	r17, 0xFF	; 255
 800:	ff e3       	ldi	r31, 0x3F	; 63
 802:	f9 83       	std	Y+1, r31	; 0x01
 804:	0d c0       	rjmp	.+26     	; 0x820 <vfprintf+0x104>
 806:	83 36       	cpi	r24, 0x63	; 99
 808:	31 f0       	breq	.+12     	; 0x816 <vfprintf+0xfa>
 80a:	83 37       	cpi	r24, 0x73	; 115
 80c:	71 f0       	breq	.+28     	; 0x82a <vfprintf+0x10e>
 80e:	83 35       	cpi	r24, 0x53	; 83
 810:	09 f0       	breq	.+2      	; 0x814 <vfprintf+0xf8>
 812:	57 c0       	rjmp	.+174    	; 0x8c2 <vfprintf+0x1a6>
 814:	21 c0       	rjmp	.+66     	; 0x858 <vfprintf+0x13c>
 816:	f8 01       	movw	r30, r16
 818:	80 81       	ld	r24, Z
 81a:	89 83       	std	Y+1, r24	; 0x01
 81c:	0e 5f       	subi	r16, 0xFE	; 254
 81e:	1f 4f       	sbci	r17, 0xFF	; 255
 820:	44 24       	eor	r4, r4
 822:	43 94       	inc	r4
 824:	51 2c       	mov	r5, r1
 826:	54 01       	movw	r10, r8
 828:	14 c0       	rjmp	.+40     	; 0x852 <vfprintf+0x136>
 82a:	38 01       	movw	r6, r16
 82c:	f2 e0       	ldi	r31, 0x02	; 2
 82e:	6f 0e       	add	r6, r31
 830:	71 1c       	adc	r7, r1
 832:	f8 01       	movw	r30, r16
 834:	a0 80       	ld	r10, Z
 836:	b1 80       	ldd	r11, Z+1	; 0x01
 838:	26 ff       	sbrs	r18, 6
 83a:	03 c0       	rjmp	.+6      	; 0x842 <vfprintf+0x126>
 83c:	65 2d       	mov	r22, r5
 83e:	70 e0       	ldi	r23, 0x00	; 0
 840:	02 c0       	rjmp	.+4      	; 0x846 <vfprintf+0x12a>
 842:	6f ef       	ldi	r22, 0xFF	; 255
 844:	7f ef       	ldi	r23, 0xFF	; 255
 846:	c5 01       	movw	r24, r10
 848:	2c 87       	std	Y+12, r18	; 0x0c
 84a:	7e d2       	rcall	.+1276   	; 0xd48 <strnlen>
 84c:	2c 01       	movw	r4, r24
 84e:	83 01       	movw	r16, r6
 850:	2c 85       	ldd	r18, Y+12	; 0x0c
 852:	2f 77       	andi	r18, 0x7F	; 127
 854:	22 2e       	mov	r2, r18
 856:	16 c0       	rjmp	.+44     	; 0x884 <vfprintf+0x168>
 858:	38 01       	movw	r6, r16
 85a:	f2 e0       	ldi	r31, 0x02	; 2
 85c:	6f 0e       	add	r6, r31
 85e:	71 1c       	adc	r7, r1
 860:	f8 01       	movw	r30, r16
 862:	a0 80       	ld	r10, Z
 864:	b1 80       	ldd	r11, Z+1	; 0x01
 866:	26 ff       	sbrs	r18, 6
 868:	03 c0       	rjmp	.+6      	; 0x870 <vfprintf+0x154>
 86a:	65 2d       	mov	r22, r5
 86c:	70 e0       	ldi	r23, 0x00	; 0
 86e:	02 c0       	rjmp	.+4      	; 0x874 <vfprintf+0x158>
 870:	6f ef       	ldi	r22, 0xFF	; 255
 872:	7f ef       	ldi	r23, 0xFF	; 255
 874:	c5 01       	movw	r24, r10
 876:	2c 87       	std	Y+12, r18	; 0x0c
 878:	55 d2       	rcall	.+1194   	; 0xd24 <strnlen_P>
 87a:	2c 01       	movw	r4, r24
 87c:	2c 85       	ldd	r18, Y+12	; 0x0c
 87e:	20 68       	ori	r18, 0x80	; 128
 880:	22 2e       	mov	r2, r18
 882:	83 01       	movw	r16, r6
 884:	23 fc       	sbrc	r2, 3
 886:	19 c0       	rjmp	.+50     	; 0x8ba <vfprintf+0x19e>
 888:	83 2d       	mov	r24, r3
 88a:	90 e0       	ldi	r25, 0x00	; 0
 88c:	48 16       	cp	r4, r24
 88e:	59 06       	cpc	r5, r25
 890:	a0 f4       	brcc	.+40     	; 0x8ba <vfprintf+0x19e>
 892:	b7 01       	movw	r22, r14
 894:	80 e2       	ldi	r24, 0x20	; 32
 896:	90 e0       	ldi	r25, 0x00	; 0
 898:	62 d2       	rcall	.+1220   	; 0xd5e <fputc>
 89a:	3a 94       	dec	r3
 89c:	f5 cf       	rjmp	.-22     	; 0x888 <vfprintf+0x16c>
 89e:	f5 01       	movw	r30, r10
 8a0:	27 fc       	sbrc	r2, 7
 8a2:	85 91       	lpm	r24, Z+
 8a4:	27 fe       	sbrs	r2, 7
 8a6:	81 91       	ld	r24, Z+
 8a8:	5f 01       	movw	r10, r30
 8aa:	b7 01       	movw	r22, r14
 8ac:	90 e0       	ldi	r25, 0x00	; 0
 8ae:	57 d2       	rcall	.+1198   	; 0xd5e <fputc>
 8b0:	31 10       	cpse	r3, r1
 8b2:	3a 94       	dec	r3
 8b4:	f1 e0       	ldi	r31, 0x01	; 1
 8b6:	4f 1a       	sub	r4, r31
 8b8:	51 08       	sbc	r5, r1
 8ba:	41 14       	cp	r4, r1
 8bc:	51 04       	cpc	r5, r1
 8be:	79 f7       	brne	.-34     	; 0x89e <vfprintf+0x182>
 8c0:	de c0       	rjmp	.+444    	; 0xa7e <vfprintf+0x362>
 8c2:	84 36       	cpi	r24, 0x64	; 100
 8c4:	11 f0       	breq	.+4      	; 0x8ca <vfprintf+0x1ae>
 8c6:	89 36       	cpi	r24, 0x69	; 105
 8c8:	31 f5       	brne	.+76     	; 0x916 <vfprintf+0x1fa>
 8ca:	f8 01       	movw	r30, r16
 8cc:	27 ff       	sbrs	r18, 7
 8ce:	07 c0       	rjmp	.+14     	; 0x8de <vfprintf+0x1c2>
 8d0:	60 81       	ld	r22, Z
 8d2:	71 81       	ldd	r23, Z+1	; 0x01
 8d4:	82 81       	ldd	r24, Z+2	; 0x02
 8d6:	93 81       	ldd	r25, Z+3	; 0x03
 8d8:	0c 5f       	subi	r16, 0xFC	; 252
 8da:	1f 4f       	sbci	r17, 0xFF	; 255
 8dc:	08 c0       	rjmp	.+16     	; 0x8ee <vfprintf+0x1d2>
 8de:	60 81       	ld	r22, Z
 8e0:	71 81       	ldd	r23, Z+1	; 0x01
 8e2:	88 27       	eor	r24, r24
 8e4:	77 fd       	sbrc	r23, 7
 8e6:	80 95       	com	r24
 8e8:	98 2f       	mov	r25, r24
 8ea:	0e 5f       	subi	r16, 0xFE	; 254
 8ec:	1f 4f       	sbci	r17, 0xFF	; 255
 8ee:	2f 76       	andi	r18, 0x6F	; 111
 8f0:	b2 2e       	mov	r11, r18
 8f2:	97 ff       	sbrs	r25, 7
 8f4:	09 c0       	rjmp	.+18     	; 0x908 <vfprintf+0x1ec>
 8f6:	90 95       	com	r25
 8f8:	80 95       	com	r24
 8fa:	70 95       	com	r23
 8fc:	61 95       	neg	r22
 8fe:	7f 4f       	sbci	r23, 0xFF	; 255
 900:	8f 4f       	sbci	r24, 0xFF	; 255
 902:	9f 4f       	sbci	r25, 0xFF	; 255
 904:	20 68       	ori	r18, 0x80	; 128
 906:	b2 2e       	mov	r11, r18
 908:	2a e0       	ldi	r18, 0x0A	; 10
 90a:	30 e0       	ldi	r19, 0x00	; 0
 90c:	a4 01       	movw	r20, r8
 90e:	59 d2       	rcall	.+1202   	; 0xdc2 <__ultoa_invert>
 910:	a8 2e       	mov	r10, r24
 912:	a8 18       	sub	r10, r8
 914:	43 c0       	rjmp	.+134    	; 0x99c <vfprintf+0x280>
 916:	85 37       	cpi	r24, 0x75	; 117
 918:	29 f4       	brne	.+10     	; 0x924 <vfprintf+0x208>
 91a:	2f 7e       	andi	r18, 0xEF	; 239
 91c:	b2 2e       	mov	r11, r18
 91e:	2a e0       	ldi	r18, 0x0A	; 10
 920:	30 e0       	ldi	r19, 0x00	; 0
 922:	25 c0       	rjmp	.+74     	; 0x96e <vfprintf+0x252>
 924:	f2 2f       	mov	r31, r18
 926:	f9 7f       	andi	r31, 0xF9	; 249
 928:	bf 2e       	mov	r11, r31
 92a:	8f 36       	cpi	r24, 0x6F	; 111
 92c:	c1 f0       	breq	.+48     	; 0x95e <vfprintf+0x242>
 92e:	18 f4       	brcc	.+6      	; 0x936 <vfprintf+0x21a>
 930:	88 35       	cpi	r24, 0x58	; 88
 932:	79 f0       	breq	.+30     	; 0x952 <vfprintf+0x236>
 934:	ad c0       	rjmp	.+346    	; 0xa90 <vfprintf+0x374>
 936:	80 37       	cpi	r24, 0x70	; 112
 938:	19 f0       	breq	.+6      	; 0x940 <vfprintf+0x224>
 93a:	88 37       	cpi	r24, 0x78	; 120
 93c:	21 f0       	breq	.+8      	; 0x946 <vfprintf+0x22a>
 93e:	a8 c0       	rjmp	.+336    	; 0xa90 <vfprintf+0x374>
 940:	2f 2f       	mov	r18, r31
 942:	20 61       	ori	r18, 0x10	; 16
 944:	b2 2e       	mov	r11, r18
 946:	b4 fe       	sbrs	r11, 4
 948:	0d c0       	rjmp	.+26     	; 0x964 <vfprintf+0x248>
 94a:	8b 2d       	mov	r24, r11
 94c:	84 60       	ori	r24, 0x04	; 4
 94e:	b8 2e       	mov	r11, r24
 950:	09 c0       	rjmp	.+18     	; 0x964 <vfprintf+0x248>
 952:	24 ff       	sbrs	r18, 4
 954:	0a c0       	rjmp	.+20     	; 0x96a <vfprintf+0x24e>
 956:	9f 2f       	mov	r25, r31
 958:	96 60       	ori	r25, 0x06	; 6
 95a:	b9 2e       	mov	r11, r25
 95c:	06 c0       	rjmp	.+12     	; 0x96a <vfprintf+0x24e>
 95e:	28 e0       	ldi	r18, 0x08	; 8
 960:	30 e0       	ldi	r19, 0x00	; 0
 962:	05 c0       	rjmp	.+10     	; 0x96e <vfprintf+0x252>
 964:	20 e1       	ldi	r18, 0x10	; 16
 966:	30 e0       	ldi	r19, 0x00	; 0
 968:	02 c0       	rjmp	.+4      	; 0x96e <vfprintf+0x252>
 96a:	20 e1       	ldi	r18, 0x10	; 16
 96c:	32 e0       	ldi	r19, 0x02	; 2
 96e:	f8 01       	movw	r30, r16
 970:	b7 fe       	sbrs	r11, 7
 972:	07 c0       	rjmp	.+14     	; 0x982 <vfprintf+0x266>
 974:	60 81       	ld	r22, Z
 976:	71 81       	ldd	r23, Z+1	; 0x01
 978:	82 81       	ldd	r24, Z+2	; 0x02
 97a:	93 81       	ldd	r25, Z+3	; 0x03
 97c:	0c 5f       	subi	r16, 0xFC	; 252
 97e:	1f 4f       	sbci	r17, 0xFF	; 255
 980:	06 c0       	rjmp	.+12     	; 0x98e <vfprintf+0x272>
 982:	60 81       	ld	r22, Z
 984:	71 81       	ldd	r23, Z+1	; 0x01
 986:	80 e0       	ldi	r24, 0x00	; 0
 988:	90 e0       	ldi	r25, 0x00	; 0
 98a:	0e 5f       	subi	r16, 0xFE	; 254
 98c:	1f 4f       	sbci	r17, 0xFF	; 255
 98e:	a4 01       	movw	r20, r8
 990:	18 d2       	rcall	.+1072   	; 0xdc2 <__ultoa_invert>
 992:	a8 2e       	mov	r10, r24
 994:	a8 18       	sub	r10, r8
 996:	fb 2d       	mov	r31, r11
 998:	ff 77       	andi	r31, 0x7F	; 127
 99a:	bf 2e       	mov	r11, r31
 99c:	b6 fe       	sbrs	r11, 6
 99e:	0b c0       	rjmp	.+22     	; 0x9b6 <vfprintf+0x29a>
 9a0:	2b 2d       	mov	r18, r11
 9a2:	2e 7f       	andi	r18, 0xFE	; 254
 9a4:	a5 14       	cp	r10, r5
 9a6:	50 f4       	brcc	.+20     	; 0x9bc <vfprintf+0x2a0>
 9a8:	b4 fe       	sbrs	r11, 4
 9aa:	0a c0       	rjmp	.+20     	; 0x9c0 <vfprintf+0x2a4>
 9ac:	b2 fc       	sbrc	r11, 2
 9ae:	08 c0       	rjmp	.+16     	; 0x9c0 <vfprintf+0x2a4>
 9b0:	2b 2d       	mov	r18, r11
 9b2:	2e 7e       	andi	r18, 0xEE	; 238
 9b4:	05 c0       	rjmp	.+10     	; 0x9c0 <vfprintf+0x2a4>
 9b6:	7a 2c       	mov	r7, r10
 9b8:	2b 2d       	mov	r18, r11
 9ba:	03 c0       	rjmp	.+6      	; 0x9c2 <vfprintf+0x2a6>
 9bc:	7a 2c       	mov	r7, r10
 9be:	01 c0       	rjmp	.+2      	; 0x9c2 <vfprintf+0x2a6>
 9c0:	75 2c       	mov	r7, r5
 9c2:	24 ff       	sbrs	r18, 4
 9c4:	0d c0       	rjmp	.+26     	; 0x9e0 <vfprintf+0x2c4>
 9c6:	fe 01       	movw	r30, r28
 9c8:	ea 0d       	add	r30, r10
 9ca:	f1 1d       	adc	r31, r1
 9cc:	80 81       	ld	r24, Z
 9ce:	80 33       	cpi	r24, 0x30	; 48
 9d0:	11 f4       	brne	.+4      	; 0x9d6 <vfprintf+0x2ba>
 9d2:	29 7e       	andi	r18, 0xE9	; 233
 9d4:	09 c0       	rjmp	.+18     	; 0x9e8 <vfprintf+0x2cc>
 9d6:	22 ff       	sbrs	r18, 2
 9d8:	06 c0       	rjmp	.+12     	; 0x9e6 <vfprintf+0x2ca>
 9da:	73 94       	inc	r7
 9dc:	73 94       	inc	r7
 9de:	04 c0       	rjmp	.+8      	; 0x9e8 <vfprintf+0x2cc>
 9e0:	82 2f       	mov	r24, r18
 9e2:	86 78       	andi	r24, 0x86	; 134
 9e4:	09 f0       	breq	.+2      	; 0x9e8 <vfprintf+0x2cc>
 9e6:	73 94       	inc	r7
 9e8:	23 fd       	sbrc	r18, 3
 9ea:	12 c0       	rjmp	.+36     	; 0xa10 <vfprintf+0x2f4>
 9ec:	20 ff       	sbrs	r18, 0
 9ee:	06 c0       	rjmp	.+12     	; 0x9fc <vfprintf+0x2e0>
 9f0:	5a 2c       	mov	r5, r10
 9f2:	73 14       	cp	r7, r3
 9f4:	18 f4       	brcc	.+6      	; 0x9fc <vfprintf+0x2e0>
 9f6:	53 0c       	add	r5, r3
 9f8:	57 18       	sub	r5, r7
 9fa:	73 2c       	mov	r7, r3
 9fc:	73 14       	cp	r7, r3
 9fe:	60 f4       	brcc	.+24     	; 0xa18 <vfprintf+0x2fc>
 a00:	b7 01       	movw	r22, r14
 a02:	80 e2       	ldi	r24, 0x20	; 32
 a04:	90 e0       	ldi	r25, 0x00	; 0
 a06:	2c 87       	std	Y+12, r18	; 0x0c
 a08:	aa d1       	rcall	.+852    	; 0xd5e <fputc>
 a0a:	73 94       	inc	r7
 a0c:	2c 85       	ldd	r18, Y+12	; 0x0c
 a0e:	f6 cf       	rjmp	.-20     	; 0x9fc <vfprintf+0x2e0>
 a10:	73 14       	cp	r7, r3
 a12:	10 f4       	brcc	.+4      	; 0xa18 <vfprintf+0x2fc>
 a14:	37 18       	sub	r3, r7
 a16:	01 c0       	rjmp	.+2      	; 0xa1a <vfprintf+0x2fe>
 a18:	31 2c       	mov	r3, r1
 a1a:	24 ff       	sbrs	r18, 4
 a1c:	11 c0       	rjmp	.+34     	; 0xa40 <vfprintf+0x324>
 a1e:	b7 01       	movw	r22, r14
 a20:	80 e3       	ldi	r24, 0x30	; 48
 a22:	90 e0       	ldi	r25, 0x00	; 0
 a24:	2c 87       	std	Y+12, r18	; 0x0c
 a26:	9b d1       	rcall	.+822    	; 0xd5e <fputc>
 a28:	2c 85       	ldd	r18, Y+12	; 0x0c
 a2a:	22 ff       	sbrs	r18, 2
 a2c:	16 c0       	rjmp	.+44     	; 0xa5a <vfprintf+0x33e>
 a2e:	21 ff       	sbrs	r18, 1
 a30:	03 c0       	rjmp	.+6      	; 0xa38 <vfprintf+0x31c>
 a32:	88 e5       	ldi	r24, 0x58	; 88
 a34:	90 e0       	ldi	r25, 0x00	; 0
 a36:	02 c0       	rjmp	.+4      	; 0xa3c <vfprintf+0x320>
 a38:	88 e7       	ldi	r24, 0x78	; 120
 a3a:	90 e0       	ldi	r25, 0x00	; 0
 a3c:	b7 01       	movw	r22, r14
 a3e:	0c c0       	rjmp	.+24     	; 0xa58 <vfprintf+0x33c>
 a40:	82 2f       	mov	r24, r18
 a42:	86 78       	andi	r24, 0x86	; 134
 a44:	51 f0       	breq	.+20     	; 0xa5a <vfprintf+0x33e>
 a46:	21 fd       	sbrc	r18, 1
 a48:	02 c0       	rjmp	.+4      	; 0xa4e <vfprintf+0x332>
 a4a:	80 e2       	ldi	r24, 0x20	; 32
 a4c:	01 c0       	rjmp	.+2      	; 0xa50 <vfprintf+0x334>
 a4e:	8b e2       	ldi	r24, 0x2B	; 43
 a50:	27 fd       	sbrc	r18, 7
 a52:	8d e2       	ldi	r24, 0x2D	; 45
 a54:	b7 01       	movw	r22, r14
 a56:	90 e0       	ldi	r25, 0x00	; 0
 a58:	82 d1       	rcall	.+772    	; 0xd5e <fputc>
 a5a:	a5 14       	cp	r10, r5
 a5c:	30 f4       	brcc	.+12     	; 0xa6a <vfprintf+0x34e>
 a5e:	b7 01       	movw	r22, r14
 a60:	80 e3       	ldi	r24, 0x30	; 48
 a62:	90 e0       	ldi	r25, 0x00	; 0
 a64:	7c d1       	rcall	.+760    	; 0xd5e <fputc>
 a66:	5a 94       	dec	r5
 a68:	f8 cf       	rjmp	.-16     	; 0xa5a <vfprintf+0x33e>
 a6a:	aa 94       	dec	r10
 a6c:	f4 01       	movw	r30, r8
 a6e:	ea 0d       	add	r30, r10
 a70:	f1 1d       	adc	r31, r1
 a72:	80 81       	ld	r24, Z
 a74:	b7 01       	movw	r22, r14
 a76:	90 e0       	ldi	r25, 0x00	; 0
 a78:	72 d1       	rcall	.+740    	; 0xd5e <fputc>
 a7a:	a1 10       	cpse	r10, r1
 a7c:	f6 cf       	rjmp	.-20     	; 0xa6a <vfprintf+0x34e>
 a7e:	33 20       	and	r3, r3
 a80:	09 f4       	brne	.+2      	; 0xa84 <vfprintf+0x368>
 a82:	5d ce       	rjmp	.-838    	; 0x73e <vfprintf+0x22>
 a84:	b7 01       	movw	r22, r14
 a86:	80 e2       	ldi	r24, 0x20	; 32
 a88:	90 e0       	ldi	r25, 0x00	; 0
 a8a:	69 d1       	rcall	.+722    	; 0xd5e <fputc>
 a8c:	3a 94       	dec	r3
 a8e:	f7 cf       	rjmp	.-18     	; 0xa7e <vfprintf+0x362>
 a90:	f7 01       	movw	r30, r14
 a92:	86 81       	ldd	r24, Z+6	; 0x06
 a94:	97 81       	ldd	r25, Z+7	; 0x07
 a96:	02 c0       	rjmp	.+4      	; 0xa9c <vfprintf+0x380>
 a98:	8f ef       	ldi	r24, 0xFF	; 255
 a9a:	9f ef       	ldi	r25, 0xFF	; 255
 a9c:	2c 96       	adiw	r28, 0x0c	; 12
 a9e:	e2 e1       	ldi	r30, 0x12	; 18
 aa0:	0a c2       	rjmp	.+1044   	; 0xeb6 <__epilogue_restores__>

00000aa2 <calloc>:
 aa2:	0f 93       	push	r16
 aa4:	1f 93       	push	r17
 aa6:	cf 93       	push	r28
 aa8:	df 93       	push	r29
 aaa:	86 9f       	mul	r24, r22
 aac:	80 01       	movw	r16, r0
 aae:	87 9f       	mul	r24, r23
 ab0:	10 0d       	add	r17, r0
 ab2:	96 9f       	mul	r25, r22
 ab4:	10 0d       	add	r17, r0
 ab6:	11 24       	eor	r1, r1
 ab8:	c8 01       	movw	r24, r16
 aba:	0d d0       	rcall	.+26     	; 0xad6 <malloc>
 abc:	ec 01       	movw	r28, r24
 abe:	00 97       	sbiw	r24, 0x00	; 0
 ac0:	21 f0       	breq	.+8      	; 0xaca <calloc+0x28>
 ac2:	a8 01       	movw	r20, r16
 ac4:	60 e0       	ldi	r22, 0x00	; 0
 ac6:	70 e0       	ldi	r23, 0x00	; 0
 ac8:	38 d1       	rcall	.+624    	; 0xd3a <memset>
 aca:	ce 01       	movw	r24, r28
 acc:	df 91       	pop	r29
 ace:	cf 91       	pop	r28
 ad0:	1f 91       	pop	r17
 ad2:	0f 91       	pop	r16
 ad4:	08 95       	ret

00000ad6 <malloc>:
 ad6:	cf 93       	push	r28
 ad8:	df 93       	push	r29
 ada:	82 30       	cpi	r24, 0x02	; 2
 adc:	91 05       	cpc	r25, r1
 ade:	10 f4       	brcc	.+4      	; 0xae4 <malloc+0xe>
 ae0:	82 e0       	ldi	r24, 0x02	; 2
 ae2:	90 e0       	ldi	r25, 0x00	; 0
 ae4:	e0 91 fd 01 	lds	r30, 0x01FD
 ae8:	f0 91 fe 01 	lds	r31, 0x01FE
 aec:	20 e0       	ldi	r18, 0x00	; 0
 aee:	30 e0       	ldi	r19, 0x00	; 0
 af0:	a0 e0       	ldi	r26, 0x00	; 0
 af2:	b0 e0       	ldi	r27, 0x00	; 0
 af4:	30 97       	sbiw	r30, 0x00	; 0
 af6:	39 f1       	breq	.+78     	; 0xb46 <malloc+0x70>
 af8:	40 81       	ld	r20, Z
 afa:	51 81       	ldd	r21, Z+1	; 0x01
 afc:	48 17       	cp	r20, r24
 afe:	59 07       	cpc	r21, r25
 b00:	b8 f0       	brcs	.+46     	; 0xb30 <malloc+0x5a>
 b02:	48 17       	cp	r20, r24
 b04:	59 07       	cpc	r21, r25
 b06:	71 f4       	brne	.+28     	; 0xb24 <malloc+0x4e>
 b08:	82 81       	ldd	r24, Z+2	; 0x02
 b0a:	93 81       	ldd	r25, Z+3	; 0x03
 b0c:	10 97       	sbiw	r26, 0x00	; 0
 b0e:	29 f0       	breq	.+10     	; 0xb1a <malloc+0x44>
 b10:	13 96       	adiw	r26, 0x03	; 3
 b12:	9c 93       	st	X, r25
 b14:	8e 93       	st	-X, r24
 b16:	12 97       	sbiw	r26, 0x02	; 2
 b18:	2c c0       	rjmp	.+88     	; 0xb72 <malloc+0x9c>
 b1a:	90 93 fe 01 	sts	0x01FE, r25
 b1e:	80 93 fd 01 	sts	0x01FD, r24
 b22:	27 c0       	rjmp	.+78     	; 0xb72 <malloc+0x9c>
 b24:	21 15       	cp	r18, r1
 b26:	31 05       	cpc	r19, r1
 b28:	31 f0       	breq	.+12     	; 0xb36 <malloc+0x60>
 b2a:	42 17       	cp	r20, r18
 b2c:	53 07       	cpc	r21, r19
 b2e:	18 f0       	brcs	.+6      	; 0xb36 <malloc+0x60>
 b30:	a9 01       	movw	r20, r18
 b32:	db 01       	movw	r26, r22
 b34:	01 c0       	rjmp	.+2      	; 0xb38 <malloc+0x62>
 b36:	ef 01       	movw	r28, r30
 b38:	9a 01       	movw	r18, r20
 b3a:	bd 01       	movw	r22, r26
 b3c:	df 01       	movw	r26, r30
 b3e:	02 80       	ldd	r0, Z+2	; 0x02
 b40:	f3 81       	ldd	r31, Z+3	; 0x03
 b42:	e0 2d       	mov	r30, r0
 b44:	d7 cf       	rjmp	.-82     	; 0xaf4 <malloc+0x1e>
 b46:	21 15       	cp	r18, r1
 b48:	31 05       	cpc	r19, r1
 b4a:	f9 f0       	breq	.+62     	; 0xb8a <malloc+0xb4>
 b4c:	28 1b       	sub	r18, r24
 b4e:	39 0b       	sbc	r19, r25
 b50:	24 30       	cpi	r18, 0x04	; 4
 b52:	31 05       	cpc	r19, r1
 b54:	80 f4       	brcc	.+32     	; 0xb76 <malloc+0xa0>
 b56:	8a 81       	ldd	r24, Y+2	; 0x02
 b58:	9b 81       	ldd	r25, Y+3	; 0x03
 b5a:	61 15       	cp	r22, r1
 b5c:	71 05       	cpc	r23, r1
 b5e:	21 f0       	breq	.+8      	; 0xb68 <malloc+0x92>
 b60:	fb 01       	movw	r30, r22
 b62:	93 83       	std	Z+3, r25	; 0x03
 b64:	82 83       	std	Z+2, r24	; 0x02
 b66:	04 c0       	rjmp	.+8      	; 0xb70 <malloc+0x9a>
 b68:	90 93 fe 01 	sts	0x01FE, r25
 b6c:	80 93 fd 01 	sts	0x01FD, r24
 b70:	fe 01       	movw	r30, r28
 b72:	32 96       	adiw	r30, 0x02	; 2
 b74:	44 c0       	rjmp	.+136    	; 0xbfe <malloc+0x128>
 b76:	fe 01       	movw	r30, r28
 b78:	e2 0f       	add	r30, r18
 b7a:	f3 1f       	adc	r31, r19
 b7c:	81 93       	st	Z+, r24
 b7e:	91 93       	st	Z+, r25
 b80:	22 50       	subi	r18, 0x02	; 2
 b82:	31 09       	sbc	r19, r1
 b84:	39 83       	std	Y+1, r19	; 0x01
 b86:	28 83       	st	Y, r18
 b88:	3a c0       	rjmp	.+116    	; 0xbfe <malloc+0x128>
 b8a:	20 91 fb 01 	lds	r18, 0x01FB
 b8e:	30 91 fc 01 	lds	r19, 0x01FC
 b92:	23 2b       	or	r18, r19
 b94:	41 f4       	brne	.+16     	; 0xba6 <malloc+0xd0>
 b96:	20 91 02 01 	lds	r18, 0x0102
 b9a:	30 91 03 01 	lds	r19, 0x0103
 b9e:	30 93 fc 01 	sts	0x01FC, r19
 ba2:	20 93 fb 01 	sts	0x01FB, r18
 ba6:	20 91 00 01 	lds	r18, 0x0100
 baa:	30 91 01 01 	lds	r19, 0x0101
 bae:	21 15       	cp	r18, r1
 bb0:	31 05       	cpc	r19, r1
 bb2:	41 f4       	brne	.+16     	; 0xbc4 <malloc+0xee>
 bb4:	2d b7       	in	r18, 0x3d	; 61
 bb6:	3e b7       	in	r19, 0x3e	; 62
 bb8:	40 91 04 01 	lds	r20, 0x0104
 bbc:	50 91 05 01 	lds	r21, 0x0105
 bc0:	24 1b       	sub	r18, r20
 bc2:	35 0b       	sbc	r19, r21
 bc4:	e0 91 fb 01 	lds	r30, 0x01FB
 bc8:	f0 91 fc 01 	lds	r31, 0x01FC
 bcc:	e2 17       	cp	r30, r18
 bce:	f3 07       	cpc	r31, r19
 bd0:	a0 f4       	brcc	.+40     	; 0xbfa <malloc+0x124>
 bd2:	2e 1b       	sub	r18, r30
 bd4:	3f 0b       	sbc	r19, r31
 bd6:	28 17       	cp	r18, r24
 bd8:	39 07       	cpc	r19, r25
 bda:	78 f0       	brcs	.+30     	; 0xbfa <malloc+0x124>
 bdc:	ac 01       	movw	r20, r24
 bde:	4e 5f       	subi	r20, 0xFE	; 254
 be0:	5f 4f       	sbci	r21, 0xFF	; 255
 be2:	24 17       	cp	r18, r20
 be4:	35 07       	cpc	r19, r21
 be6:	48 f0       	brcs	.+18     	; 0xbfa <malloc+0x124>
 be8:	4e 0f       	add	r20, r30
 bea:	5f 1f       	adc	r21, r31
 bec:	50 93 fc 01 	sts	0x01FC, r21
 bf0:	40 93 fb 01 	sts	0x01FB, r20
 bf4:	81 93       	st	Z+, r24
 bf6:	91 93       	st	Z+, r25
 bf8:	02 c0       	rjmp	.+4      	; 0xbfe <malloc+0x128>
 bfa:	e0 e0       	ldi	r30, 0x00	; 0
 bfc:	f0 e0       	ldi	r31, 0x00	; 0
 bfe:	cf 01       	movw	r24, r30
 c00:	df 91       	pop	r29
 c02:	cf 91       	pop	r28
 c04:	08 95       	ret

00000c06 <free>:
 c06:	cf 93       	push	r28
 c08:	df 93       	push	r29
 c0a:	00 97       	sbiw	r24, 0x00	; 0
 c0c:	09 f4       	brne	.+2      	; 0xc10 <free+0xa>
 c0e:	87 c0       	rjmp	.+270    	; 0xd1e <free+0x118>
 c10:	fc 01       	movw	r30, r24
 c12:	32 97       	sbiw	r30, 0x02	; 2
 c14:	13 82       	std	Z+3, r1	; 0x03
 c16:	12 82       	std	Z+2, r1	; 0x02
 c18:	c0 91 fd 01 	lds	r28, 0x01FD
 c1c:	d0 91 fe 01 	lds	r29, 0x01FE
 c20:	20 97       	sbiw	r28, 0x00	; 0
 c22:	81 f4       	brne	.+32     	; 0xc44 <free+0x3e>
 c24:	20 81       	ld	r18, Z
 c26:	31 81       	ldd	r19, Z+1	; 0x01
 c28:	28 0f       	add	r18, r24
 c2a:	39 1f       	adc	r19, r25
 c2c:	80 91 fb 01 	lds	r24, 0x01FB
 c30:	90 91 fc 01 	lds	r25, 0x01FC
 c34:	82 17       	cp	r24, r18
 c36:	93 07       	cpc	r25, r19
 c38:	79 f5       	brne	.+94     	; 0xc98 <free+0x92>
 c3a:	f0 93 fc 01 	sts	0x01FC, r31
 c3e:	e0 93 fb 01 	sts	0x01FB, r30
 c42:	6d c0       	rjmp	.+218    	; 0xd1e <free+0x118>
 c44:	de 01       	movw	r26, r28
 c46:	20 e0       	ldi	r18, 0x00	; 0
 c48:	30 e0       	ldi	r19, 0x00	; 0
 c4a:	ae 17       	cp	r26, r30
 c4c:	bf 07       	cpc	r27, r31
 c4e:	50 f4       	brcc	.+20     	; 0xc64 <free+0x5e>
 c50:	12 96       	adiw	r26, 0x02	; 2
 c52:	4d 91       	ld	r20, X+
 c54:	5c 91       	ld	r21, X
 c56:	13 97       	sbiw	r26, 0x03	; 3
 c58:	9d 01       	movw	r18, r26
 c5a:	41 15       	cp	r20, r1
 c5c:	51 05       	cpc	r21, r1
 c5e:	09 f1       	breq	.+66     	; 0xca2 <free+0x9c>
 c60:	da 01       	movw	r26, r20
 c62:	f3 cf       	rjmp	.-26     	; 0xc4a <free+0x44>
 c64:	b3 83       	std	Z+3, r27	; 0x03
 c66:	a2 83       	std	Z+2, r26	; 0x02
 c68:	40 81       	ld	r20, Z
 c6a:	51 81       	ldd	r21, Z+1	; 0x01
 c6c:	84 0f       	add	r24, r20
 c6e:	95 1f       	adc	r25, r21
 c70:	8a 17       	cp	r24, r26
 c72:	9b 07       	cpc	r25, r27
 c74:	71 f4       	brne	.+28     	; 0xc92 <free+0x8c>
 c76:	8d 91       	ld	r24, X+
 c78:	9c 91       	ld	r25, X
 c7a:	11 97       	sbiw	r26, 0x01	; 1
 c7c:	84 0f       	add	r24, r20
 c7e:	95 1f       	adc	r25, r21
 c80:	02 96       	adiw	r24, 0x02	; 2
 c82:	91 83       	std	Z+1, r25	; 0x01
 c84:	80 83       	st	Z, r24
 c86:	12 96       	adiw	r26, 0x02	; 2
 c88:	8d 91       	ld	r24, X+
 c8a:	9c 91       	ld	r25, X
 c8c:	13 97       	sbiw	r26, 0x03	; 3
 c8e:	93 83       	std	Z+3, r25	; 0x03
 c90:	82 83       	std	Z+2, r24	; 0x02
 c92:	21 15       	cp	r18, r1
 c94:	31 05       	cpc	r19, r1
 c96:	29 f4       	brne	.+10     	; 0xca2 <free+0x9c>
 c98:	f0 93 fe 01 	sts	0x01FE, r31
 c9c:	e0 93 fd 01 	sts	0x01FD, r30
 ca0:	3e c0       	rjmp	.+124    	; 0xd1e <free+0x118>
 ca2:	d9 01       	movw	r26, r18
 ca4:	13 96       	adiw	r26, 0x03	; 3
 ca6:	fc 93       	st	X, r31
 ca8:	ee 93       	st	-X, r30
 caa:	12 97       	sbiw	r26, 0x02	; 2
 cac:	4d 91       	ld	r20, X+
 cae:	5d 91       	ld	r21, X+
 cb0:	a4 0f       	add	r26, r20
 cb2:	b5 1f       	adc	r27, r21
 cb4:	ea 17       	cp	r30, r26
 cb6:	fb 07       	cpc	r31, r27
 cb8:	79 f4       	brne	.+30     	; 0xcd8 <free+0xd2>
 cba:	80 81       	ld	r24, Z
 cbc:	91 81       	ldd	r25, Z+1	; 0x01
 cbe:	84 0f       	add	r24, r20
 cc0:	95 1f       	adc	r25, r21
 cc2:	02 96       	adiw	r24, 0x02	; 2
 cc4:	d9 01       	movw	r26, r18
 cc6:	11 96       	adiw	r26, 0x01	; 1
 cc8:	9c 93       	st	X, r25
 cca:	8e 93       	st	-X, r24
 ccc:	82 81       	ldd	r24, Z+2	; 0x02
 cce:	93 81       	ldd	r25, Z+3	; 0x03
 cd0:	13 96       	adiw	r26, 0x03	; 3
 cd2:	9c 93       	st	X, r25
 cd4:	8e 93       	st	-X, r24
 cd6:	12 97       	sbiw	r26, 0x02	; 2
 cd8:	e0 e0       	ldi	r30, 0x00	; 0
 cda:	f0 e0       	ldi	r31, 0x00	; 0
 cdc:	8a 81       	ldd	r24, Y+2	; 0x02
 cde:	9b 81       	ldd	r25, Y+3	; 0x03
 ce0:	00 97       	sbiw	r24, 0x00	; 0
 ce2:	19 f0       	breq	.+6      	; 0xcea <free+0xe4>
 ce4:	fe 01       	movw	r30, r28
 ce6:	ec 01       	movw	r28, r24
 ce8:	f9 cf       	rjmp	.-14     	; 0xcdc <free+0xd6>
 cea:	ce 01       	movw	r24, r28
 cec:	02 96       	adiw	r24, 0x02	; 2
 cee:	28 81       	ld	r18, Y
 cf0:	39 81       	ldd	r19, Y+1	; 0x01
 cf2:	82 0f       	add	r24, r18
 cf4:	93 1f       	adc	r25, r19
 cf6:	20 91 fb 01 	lds	r18, 0x01FB
 cfa:	30 91 fc 01 	lds	r19, 0x01FC
 cfe:	28 17       	cp	r18, r24
 d00:	39 07       	cpc	r19, r25
 d02:	69 f4       	brne	.+26     	; 0xd1e <free+0x118>
 d04:	30 97       	sbiw	r30, 0x00	; 0
 d06:	29 f4       	brne	.+10     	; 0xd12 <free+0x10c>
 d08:	10 92 fe 01 	sts	0x01FE, r1
 d0c:	10 92 fd 01 	sts	0x01FD, r1
 d10:	02 c0       	rjmp	.+4      	; 0xd16 <free+0x110>
 d12:	13 82       	std	Z+3, r1	; 0x03
 d14:	12 82       	std	Z+2, r1	; 0x02
 d16:	d0 93 fc 01 	sts	0x01FC, r29
 d1a:	c0 93 fb 01 	sts	0x01FB, r28
 d1e:	df 91       	pop	r29
 d20:	cf 91       	pop	r28
 d22:	08 95       	ret

00000d24 <strnlen_P>:
 d24:	fc 01       	movw	r30, r24
 d26:	05 90       	lpm	r0, Z+
 d28:	61 50       	subi	r22, 0x01	; 1
 d2a:	70 40       	sbci	r23, 0x00	; 0
 d2c:	01 10       	cpse	r0, r1
 d2e:	d8 f7       	brcc	.-10     	; 0xd26 <strnlen_P+0x2>
 d30:	80 95       	com	r24
 d32:	90 95       	com	r25
 d34:	8e 0f       	add	r24, r30
 d36:	9f 1f       	adc	r25, r31
 d38:	08 95       	ret

00000d3a <memset>:
 d3a:	dc 01       	movw	r26, r24
 d3c:	01 c0       	rjmp	.+2      	; 0xd40 <memset+0x6>
 d3e:	6d 93       	st	X+, r22
 d40:	41 50       	subi	r20, 0x01	; 1
 d42:	50 40       	sbci	r21, 0x00	; 0
 d44:	e0 f7       	brcc	.-8      	; 0xd3e <memset+0x4>
 d46:	08 95       	ret

00000d48 <strnlen>:
 d48:	fc 01       	movw	r30, r24
 d4a:	61 50       	subi	r22, 0x01	; 1
 d4c:	70 40       	sbci	r23, 0x00	; 0
 d4e:	01 90       	ld	r0, Z+
 d50:	01 10       	cpse	r0, r1
 d52:	d8 f7       	brcc	.-10     	; 0xd4a <strnlen+0x2>
 d54:	80 95       	com	r24
 d56:	90 95       	com	r25
 d58:	8e 0f       	add	r24, r30
 d5a:	9f 1f       	adc	r25, r31
 d5c:	08 95       	ret

00000d5e <fputc>:
 d5e:	0f 93       	push	r16
 d60:	1f 93       	push	r17
 d62:	cf 93       	push	r28
 d64:	df 93       	push	r29
 d66:	18 2f       	mov	r17, r24
 d68:	09 2f       	mov	r16, r25
 d6a:	eb 01       	movw	r28, r22
 d6c:	8b 81       	ldd	r24, Y+3	; 0x03
 d6e:	81 fd       	sbrc	r24, 1
 d70:	03 c0       	rjmp	.+6      	; 0xd78 <fputc+0x1a>
 d72:	8f ef       	ldi	r24, 0xFF	; 255
 d74:	9f ef       	ldi	r25, 0xFF	; 255
 d76:	20 c0       	rjmp	.+64     	; 0xdb8 <fputc+0x5a>
 d78:	82 ff       	sbrs	r24, 2
 d7a:	10 c0       	rjmp	.+32     	; 0xd9c <fputc+0x3e>
 d7c:	4e 81       	ldd	r20, Y+6	; 0x06
 d7e:	5f 81       	ldd	r21, Y+7	; 0x07
 d80:	2c 81       	ldd	r18, Y+4	; 0x04
 d82:	3d 81       	ldd	r19, Y+5	; 0x05
 d84:	42 17       	cp	r20, r18
 d86:	53 07       	cpc	r21, r19
 d88:	7c f4       	brge	.+30     	; 0xda8 <fputc+0x4a>
 d8a:	e8 81       	ld	r30, Y
 d8c:	f9 81       	ldd	r31, Y+1	; 0x01
 d8e:	9f 01       	movw	r18, r30
 d90:	2f 5f       	subi	r18, 0xFF	; 255
 d92:	3f 4f       	sbci	r19, 0xFF	; 255
 d94:	39 83       	std	Y+1, r19	; 0x01
 d96:	28 83       	st	Y, r18
 d98:	10 83       	st	Z, r17
 d9a:	06 c0       	rjmp	.+12     	; 0xda8 <fputc+0x4a>
 d9c:	e8 85       	ldd	r30, Y+8	; 0x08
 d9e:	f9 85       	ldd	r31, Y+9	; 0x09
 da0:	81 2f       	mov	r24, r17
 da2:	09 95       	icall
 da4:	89 2b       	or	r24, r25
 da6:	29 f7       	brne	.-54     	; 0xd72 <fputc+0x14>
 da8:	2e 81       	ldd	r18, Y+6	; 0x06
 daa:	3f 81       	ldd	r19, Y+7	; 0x07
 dac:	2f 5f       	subi	r18, 0xFF	; 255
 dae:	3f 4f       	sbci	r19, 0xFF	; 255
 db0:	3f 83       	std	Y+7, r19	; 0x07
 db2:	2e 83       	std	Y+6, r18	; 0x06
 db4:	81 2f       	mov	r24, r17
 db6:	90 2f       	mov	r25, r16
 db8:	df 91       	pop	r29
 dba:	cf 91       	pop	r28
 dbc:	1f 91       	pop	r17
 dbe:	0f 91       	pop	r16
 dc0:	08 95       	ret

00000dc2 <__ultoa_invert>:
 dc2:	fa 01       	movw	r30, r20
 dc4:	aa 27       	eor	r26, r26
 dc6:	28 30       	cpi	r18, 0x08	; 8
 dc8:	51 f1       	breq	.+84     	; 0xe1e <__ultoa_invert+0x5c>
 dca:	20 31       	cpi	r18, 0x10	; 16
 dcc:	81 f1       	breq	.+96     	; 0xe2e <__ultoa_invert+0x6c>
 dce:	e8 94       	clt
 dd0:	6f 93       	push	r22
 dd2:	6e 7f       	andi	r22, 0xFE	; 254
 dd4:	6e 5f       	subi	r22, 0xFE	; 254
 dd6:	7f 4f       	sbci	r23, 0xFF	; 255
 dd8:	8f 4f       	sbci	r24, 0xFF	; 255
 dda:	9f 4f       	sbci	r25, 0xFF	; 255
 ddc:	af 4f       	sbci	r26, 0xFF	; 255
 dde:	b1 e0       	ldi	r27, 0x01	; 1
 de0:	3e d0       	rcall	.+124    	; 0xe5e <__ultoa_invert+0x9c>
 de2:	b4 e0       	ldi	r27, 0x04	; 4
 de4:	3c d0       	rcall	.+120    	; 0xe5e <__ultoa_invert+0x9c>
 de6:	67 0f       	add	r22, r23
 de8:	78 1f       	adc	r23, r24
 dea:	89 1f       	adc	r24, r25
 dec:	9a 1f       	adc	r25, r26
 dee:	a1 1d       	adc	r26, r1
 df0:	68 0f       	add	r22, r24
 df2:	79 1f       	adc	r23, r25
 df4:	8a 1f       	adc	r24, r26
 df6:	91 1d       	adc	r25, r1
 df8:	a1 1d       	adc	r26, r1
 dfa:	6a 0f       	add	r22, r26
 dfc:	71 1d       	adc	r23, r1
 dfe:	81 1d       	adc	r24, r1
 e00:	91 1d       	adc	r25, r1
 e02:	a1 1d       	adc	r26, r1
 e04:	20 d0       	rcall	.+64     	; 0xe46 <__ultoa_invert+0x84>
 e06:	09 f4       	brne	.+2      	; 0xe0a <__ultoa_invert+0x48>
 e08:	68 94       	set
 e0a:	3f 91       	pop	r19
 e0c:	2a e0       	ldi	r18, 0x0A	; 10
 e0e:	26 9f       	mul	r18, r22
 e10:	11 24       	eor	r1, r1
 e12:	30 19       	sub	r19, r0
 e14:	30 5d       	subi	r19, 0xD0	; 208
 e16:	31 93       	st	Z+, r19
 e18:	de f6       	brtc	.-74     	; 0xdd0 <__ultoa_invert+0xe>
 e1a:	cf 01       	movw	r24, r30
 e1c:	08 95       	ret
 e1e:	46 2f       	mov	r20, r22
 e20:	47 70       	andi	r20, 0x07	; 7
 e22:	40 5d       	subi	r20, 0xD0	; 208
 e24:	41 93       	st	Z+, r20
 e26:	b3 e0       	ldi	r27, 0x03	; 3
 e28:	0f d0       	rcall	.+30     	; 0xe48 <__ultoa_invert+0x86>
 e2a:	c9 f7       	brne	.-14     	; 0xe1e <__ultoa_invert+0x5c>
 e2c:	f6 cf       	rjmp	.-20     	; 0xe1a <__ultoa_invert+0x58>
 e2e:	46 2f       	mov	r20, r22
 e30:	4f 70       	andi	r20, 0x0F	; 15
 e32:	40 5d       	subi	r20, 0xD0	; 208
 e34:	4a 33       	cpi	r20, 0x3A	; 58
 e36:	18 f0       	brcs	.+6      	; 0xe3e <__ultoa_invert+0x7c>
 e38:	49 5d       	subi	r20, 0xD9	; 217
 e3a:	31 fd       	sbrc	r19, 1
 e3c:	40 52       	subi	r20, 0x20	; 32
 e3e:	41 93       	st	Z+, r20
 e40:	02 d0       	rcall	.+4      	; 0xe46 <__ultoa_invert+0x84>
 e42:	a9 f7       	brne	.-22     	; 0xe2e <__ultoa_invert+0x6c>
 e44:	ea cf       	rjmp	.-44     	; 0xe1a <__ultoa_invert+0x58>
 e46:	b4 e0       	ldi	r27, 0x04	; 4
 e48:	a6 95       	lsr	r26
 e4a:	97 95       	ror	r25
 e4c:	87 95       	ror	r24
 e4e:	77 95       	ror	r23
 e50:	67 95       	ror	r22
 e52:	ba 95       	dec	r27
 e54:	c9 f7       	brne	.-14     	; 0xe48 <__ultoa_invert+0x86>
 e56:	00 97       	sbiw	r24, 0x00	; 0
 e58:	61 05       	cpc	r22, r1
 e5a:	71 05       	cpc	r23, r1
 e5c:	08 95       	ret
 e5e:	9b 01       	movw	r18, r22
 e60:	ac 01       	movw	r20, r24
 e62:	0a 2e       	mov	r0, r26
 e64:	06 94       	lsr	r0
 e66:	57 95       	ror	r21
 e68:	47 95       	ror	r20
 e6a:	37 95       	ror	r19
 e6c:	27 95       	ror	r18
 e6e:	ba 95       	dec	r27
 e70:	c9 f7       	brne	.-14     	; 0xe64 <__ultoa_invert+0xa2>
 e72:	62 0f       	add	r22, r18
 e74:	73 1f       	adc	r23, r19
 e76:	84 1f       	adc	r24, r20
 e78:	95 1f       	adc	r25, r21
 e7a:	a0 1d       	adc	r26, r0
 e7c:	08 95       	ret

00000e7e <__prologue_saves__>:
 e7e:	2f 92       	push	r2
 e80:	3f 92       	push	r3
 e82:	4f 92       	push	r4
 e84:	5f 92       	push	r5
 e86:	6f 92       	push	r6
 e88:	7f 92       	push	r7
 e8a:	8f 92       	push	r8
 e8c:	9f 92       	push	r9
 e8e:	af 92       	push	r10
 e90:	bf 92       	push	r11
 e92:	cf 92       	push	r12
 e94:	df 92       	push	r13
 e96:	ef 92       	push	r14
 e98:	ff 92       	push	r15
 e9a:	0f 93       	push	r16
 e9c:	1f 93       	push	r17
 e9e:	cf 93       	push	r28
 ea0:	df 93       	push	r29
 ea2:	cd b7       	in	r28, 0x3d	; 61
 ea4:	de b7       	in	r29, 0x3e	; 62
 ea6:	ca 1b       	sub	r28, r26
 ea8:	db 0b       	sbc	r29, r27
 eaa:	0f b6       	in	r0, 0x3f	; 63
 eac:	f8 94       	cli
 eae:	de bf       	out	0x3e, r29	; 62
 eb0:	0f be       	out	0x3f, r0	; 63
 eb2:	cd bf       	out	0x3d, r28	; 61
 eb4:	09 94       	ijmp

00000eb6 <__epilogue_restores__>:
 eb6:	2a 88       	ldd	r2, Y+18	; 0x12
 eb8:	39 88       	ldd	r3, Y+17	; 0x11
 eba:	48 88       	ldd	r4, Y+16	; 0x10
 ebc:	5f 84       	ldd	r5, Y+15	; 0x0f
 ebe:	6e 84       	ldd	r6, Y+14	; 0x0e
 ec0:	7d 84       	ldd	r7, Y+13	; 0x0d
 ec2:	8c 84       	ldd	r8, Y+12	; 0x0c
 ec4:	9b 84       	ldd	r9, Y+11	; 0x0b
 ec6:	aa 84       	ldd	r10, Y+10	; 0x0a
 ec8:	b9 84       	ldd	r11, Y+9	; 0x09
 eca:	c8 84       	ldd	r12, Y+8	; 0x08
 ecc:	df 80       	ldd	r13, Y+7	; 0x07
 ece:	ee 80       	ldd	r14, Y+6	; 0x06
 ed0:	fd 80       	ldd	r15, Y+5	; 0x05
 ed2:	0c 81       	ldd	r16, Y+4	; 0x04
 ed4:	1b 81       	ldd	r17, Y+3	; 0x03
 ed6:	aa 81       	ldd	r26, Y+2	; 0x02
 ed8:	b9 81       	ldd	r27, Y+1	; 0x01
 eda:	ce 0f       	add	r28, r30
 edc:	d1 1d       	adc	r29, r1
 ede:	0f b6       	in	r0, 0x3f	; 63
 ee0:	f8 94       	cli
 ee2:	de bf       	out	0x3e, r29	; 62
 ee4:	0f be       	out	0x3f, r0	; 63
 ee6:	cd bf       	out	0x3d, r28	; 61
 ee8:	ed 01       	movw	r28, r26
 eea:	08 95       	ret

00000eec <_exit>:
 eec:	f8 94       	cli

00000eee <__stop_program>:
 eee:	ff cf       	rjmp	.-2      	; 0xeee <__stop_program>
